
simpleserial-challenge-CW308_STM32F4.elf:     file format elf32-littlearm

Sections:
Idx Name          Size      VMA       LMA       File off  Algn
  0 .isr_vector   00000188  08000000  08000000  00010000  2**0
                  CONTENTS, ALLOC, LOAD, READONLY, DATA
  1 .text         00003d74  08000188  08000188  00010188  2**2
                  CONTENTS, ALLOC, LOAD, READONLY, CODE
  2 .rodata       000004c4  08003f00  08003f00  00013f00  2**3
                  CONTENTS, ALLOC, LOAD, READONLY, DATA
  3 .ARM.extab    00000000  080043c4  080043c4  00020840  2**0
                  CONTENTS
  4 .ARM          00000000  080043c4  080043c4  00020840  2**0
                  CONTENTS
  5 .preinit_array 00000000  080043c4  080043c4  00020840  2**0
                  CONTENTS, ALLOC, LOAD, DATA
  6 .init_array   00000008  080043c4  080043c4  000143c4  2**2
                  CONTENTS, ALLOC, LOAD, DATA
  7 .fini_array   00000004  080043cc  080043cc  000143cc  2**2
                  CONTENTS, ALLOC, LOAD, DATA
  8 .data         00000840  20000000  080043d0  00020000  2**3
                  CONTENTS, ALLOC, LOAD, DATA
  9 .bss          000001bc  20000840  08004c10  00020840  2**2
                  ALLOC
 10 ._user_heap_stack 00000404  200009fc  08004c10  000209fc  2**0
                  ALLOC
 11 .ARM.attributes 0000002a  00000000  00000000  00020840  2**0
                  CONTENTS, READONLY
 12 .comment      00000033  00000000  00000000  0002086a  2**0
                  CONTENTS, READONLY
 13 .debug_info   0001321c  00000000  00000000  0002089d  2**0
                  CONTENTS, READONLY, DEBUGGING, OCTETS
 14 .debug_abbrev 00003c1c  00000000  00000000  00033ab9  2**0
                  CONTENTS, READONLY, DEBUGGING, OCTETS
 15 .debug_loc    0000f980  00000000  00000000  000376d5  2**0
                  CONTENTS, READONLY, DEBUGGING, OCTETS
 16 .debug_aranges 000007b8  00000000  00000000  00047058  2**3
                  CONTENTS, READONLY, DEBUGGING, OCTETS
 17 .debug_ranges 00001d78  00000000  00000000  00047810  2**0
                  CONTENTS, READONLY, DEBUGGING, OCTETS
 18 .debug_line   0000d0c3  00000000  00000000  00049588  2**0
                  CONTENTS, READONLY, DEBUGGING, OCTETS
 19 .debug_str    00002d08  00000000  00000000  0005664b  2**0
                  CONTENTS, READONLY, DEBUGGING, OCTETS
 20 .debug_frame  000014b8  00000000  00000000  00059354  2**2
                  CONTENTS, READONLY, DEBUGGING, OCTETS
 21 .stab         0000015c  00000000  00000000  0005a80c  2**2
                  CONTENTS, READONLY, DEBUGGING
 22 .stabstr      0000008f  00000000  00000000  0005a968  2**0
                  CONTENTS, READONLY, DEBUGGING

Disassembly of section .text:

08000188 <deregister_tm_clones>:
 8000188:	4803      	ldr	r0, [pc, #12]	; (8000198 <deregister_tm_clones+0x10>)
 800018a:	4b04      	ldr	r3, [pc, #16]	; (800019c <deregister_tm_clones+0x14>)
 800018c:	4283      	cmp	r3, r0
 800018e:	d002      	beq.n	8000196 <deregister_tm_clones+0xe>
 8000190:	4b03      	ldr	r3, [pc, #12]	; (80001a0 <deregister_tm_clones+0x18>)
 8000192:	b103      	cbz	r3, 8000196 <deregister_tm_clones+0xe>
 8000194:	4718      	bx	r3
 8000196:	4770      	bx	lr
 8000198:	20000840 	.word	0x20000840
 800019c:	20000840 	.word	0x20000840
 80001a0:	00000000 	.word	0x00000000

080001a4 <register_tm_clones>:
 80001a4:	4805      	ldr	r0, [pc, #20]	; (80001bc <register_tm_clones+0x18>)
 80001a6:	4906      	ldr	r1, [pc, #24]	; (80001c0 <register_tm_clones+0x1c>)
 80001a8:	1a0b      	subs	r3, r1, r0
 80001aa:	0fd9      	lsrs	r1, r3, #31
 80001ac:	eb01 01a3 	add.w	r1, r1, r3, asr #2
 80001b0:	1049      	asrs	r1, r1, #1
 80001b2:	d002      	beq.n	80001ba <register_tm_clones+0x16>
 80001b4:	4b03      	ldr	r3, [pc, #12]	; (80001c4 <register_tm_clones+0x20>)
 80001b6:	b103      	cbz	r3, 80001ba <register_tm_clones+0x16>
 80001b8:	4718      	bx	r3
 80001ba:	4770      	bx	lr
 80001bc:	20000840 	.word	0x20000840
 80001c0:	20000840 	.word	0x20000840
 80001c4:	00000000 	.word	0x00000000

080001c8 <__do_global_dtors_aux>:
 80001c8:	b510      	push	{r4, lr}
 80001ca:	4c06      	ldr	r4, [pc, #24]	; (80001e4 <__do_global_dtors_aux+0x1c>)
 80001cc:	7823      	ldrb	r3, [r4, #0]
 80001ce:	b943      	cbnz	r3, 80001e2 <__do_global_dtors_aux+0x1a>
 80001d0:	f7ff ffda 	bl	8000188 <deregister_tm_clones>
 80001d4:	4b04      	ldr	r3, [pc, #16]	; (80001e8 <__do_global_dtors_aux+0x20>)
 80001d6:	b113      	cbz	r3, 80001de <__do_global_dtors_aux+0x16>
 80001d8:	4804      	ldr	r0, [pc, #16]	; (80001ec <__do_global_dtors_aux+0x24>)
 80001da:	f3af 8000 	nop.w
 80001de:	2301      	movs	r3, #1
 80001e0:	7023      	strb	r3, [r4, #0]
 80001e2:	bd10      	pop	{r4, pc}
 80001e4:	20000840 	.word	0x20000840
 80001e8:	00000000 	.word	0x00000000
 80001ec:	08003ee4 	.word	0x08003ee4

080001f0 <frame_dummy>:
 80001f0:	b508      	push	{r3, lr}
 80001f2:	4b04      	ldr	r3, [pc, #16]	; (8000204 <frame_dummy+0x14>)
 80001f4:	b11b      	cbz	r3, 80001fe <frame_dummy+0xe>
 80001f6:	4904      	ldr	r1, [pc, #16]	; (8000208 <frame_dummy+0x18>)
 80001f8:	4804      	ldr	r0, [pc, #16]	; (800020c <frame_dummy+0x1c>)
 80001fa:	f3af 8000 	nop.w
 80001fe:	e8bd 4008 	ldmia.w	sp!, {r3, lr}
 8000202:	e7cf      	b.n	80001a4 <register_tm_clones>
 8000204:	00000000 	.word	0x00000000
 8000208:	20000844 	.word	0x20000844
 800020c:	08003ee4 	.word	0x08003ee4

08000210 <atexit>:
 8000210:	2300      	movs	r3, #0
 8000212:	4601      	mov	r1, r0
 8000214:	461a      	mov	r2, r3
 8000216:	4618      	mov	r0, r3
 8000218:	f000 bc4a 	b.w	8000ab0 <__register_exitproc>

0800021c <__errno>:
 800021c:	4b01      	ldr	r3, [pc, #4]	; (8000224 <__errno+0x8>)
 800021e:	6818      	ldr	r0, [r3, #0]
 8000220:	4770      	bx	lr
 8000222:	bf00      	nop
 8000224:	20000000 	.word	0x20000000

08000228 <exit>:
 8000228:	b508      	push	{r3, lr}
 800022a:	2100      	movs	r1, #0
 800022c:	4604      	mov	r4, r0
 800022e:	f000 fc73 	bl	8000b18 <__call_exitprocs>
 8000232:	4b04      	ldr	r3, [pc, #16]	; (8000244 <exit+0x1c>)
 8000234:	6818      	ldr	r0, [r3, #0]
 8000236:	6bc3      	ldr	r3, [r0, #60]	; 0x3c
 8000238:	b103      	cbz	r3, 800023c <exit+0x14>
 800023a:	4798      	blx	r3
 800023c:	4620      	mov	r0, r4
 800023e:	f000 fe37 	bl	8000eb0 <_exit>
 8000242:	bf00      	nop
 8000244:	080043c0 	.word	0x080043c0

08000248 <__libc_fini_array>:
 8000248:	b538      	push	{r3, r4, r5, lr}
 800024a:	4b08      	ldr	r3, [pc, #32]	; (800026c <__libc_fini_array+0x24>)
 800024c:	4d08      	ldr	r5, [pc, #32]	; (8000270 <__libc_fini_array+0x28>)
 800024e:	1b5b      	subs	r3, r3, r5
 8000250:	109c      	asrs	r4, r3, #2
 8000252:	d007      	beq.n	8000264 <__libc_fini_array+0x1c>
 8000254:	3b04      	subs	r3, #4
 8000256:	441d      	add	r5, r3
 8000258:	3c01      	subs	r4, #1
 800025a:	f855 3904 	ldr.w	r3, [r5], #-4
 800025e:	4798      	blx	r3
 8000260:	2c00      	cmp	r4, #0
 8000262:	d1f9      	bne.n	8000258 <__libc_fini_array+0x10>
 8000264:	e8bd 4038 	ldmia.w	sp!, {r3, r4, r5, lr}
 8000268:	f003 be42 	b.w	8003ef0 <_fini>
 800026c:	080043d0 	.word	0x080043d0
 8000270:	080043cc 	.word	0x080043cc

08000274 <__libc_init_array>:
 8000274:	b570      	push	{r4, r5, r6, lr}
 8000276:	4e0d      	ldr	r6, [pc, #52]	; (80002ac <__libc_init_array+0x38>)
 8000278:	4d0d      	ldr	r5, [pc, #52]	; (80002b0 <__libc_init_array+0x3c>)
 800027a:	1b76      	subs	r6, r6, r5
 800027c:	10b6      	asrs	r6, r6, #2
 800027e:	d006      	beq.n	800028e <__libc_init_array+0x1a>
 8000280:	2400      	movs	r4, #0
 8000282:	f855 3b04 	ldr.w	r3, [r5], #4
 8000286:	3401      	adds	r4, #1
 8000288:	4798      	blx	r3
 800028a:	42a6      	cmp	r6, r4
 800028c:	d1f9      	bne.n	8000282 <__libc_init_array+0xe>
 800028e:	4e09      	ldr	r6, [pc, #36]	; (80002b4 <__libc_init_array+0x40>)
 8000290:	4d09      	ldr	r5, [pc, #36]	; (80002b8 <__libc_init_array+0x44>)
 8000292:	1b76      	subs	r6, r6, r5
 8000294:	f003 fe26 	bl	8003ee4 <_init>
 8000298:	10b6      	asrs	r6, r6, #2
 800029a:	d006      	beq.n	80002aa <__libc_init_array+0x36>
 800029c:	2400      	movs	r4, #0
 800029e:	f855 3b04 	ldr.w	r3, [r5], #4
 80002a2:	3401      	adds	r4, #1
 80002a4:	4798      	blx	r3
 80002a6:	42a6      	cmp	r6, r4
 80002a8:	d1f9      	bne.n	800029e <__libc_init_array+0x2a>
 80002aa:	bd70      	pop	{r4, r5, r6, pc}
 80002ac:	080043c4 	.word	0x080043c4
 80002b0:	080043c4 	.word	0x080043c4
 80002b4:	080043cc 	.word	0x080043cc
 80002b8:	080043c4 	.word	0x080043c4

080002bc <malloc>:
 80002bc:	4b02      	ldr	r3, [pc, #8]	; (80002c8 <malloc+0xc>)
 80002be:	4601      	mov	r1, r0
 80002c0:	6818      	ldr	r0, [r3, #0]
 80002c2:	f000 b80b 	b.w	80002dc <_malloc_r>
 80002c6:	bf00      	nop
 80002c8:	20000000 	.word	0x20000000

080002cc <free>:
 80002cc:	4b02      	ldr	r3, [pc, #8]	; (80002d8 <free+0xc>)
 80002ce:	4601      	mov	r1, r0
 80002d0:	6818      	ldr	r0, [r3, #0]
 80002d2:	f000 bcc9 	b.w	8000c68 <_free_r>
 80002d6:	bf00      	nop
 80002d8:	20000000 	.word	0x20000000

080002dc <_malloc_r>:
 80002dc:	e92d 4ff0 	stmdb	sp!, {r4, r5, r6, r7, r8, r9, sl, fp, lr}
 80002e0:	f101 060b 	add.w	r6, r1, #11
 80002e4:	2e16      	cmp	r6, #22
 80002e6:	b083      	sub	sp, #12
 80002e8:	4604      	mov	r4, r0
 80002ea:	d824      	bhi.n	8000336 <_malloc_r+0x5a>
 80002ec:	2910      	cmp	r1, #16
 80002ee:	f200 80ba 	bhi.w	8000466 <_malloc_r+0x18a>
 80002f2:	f000 fb89 	bl	8000a08 <__malloc_lock>
 80002f6:	2610      	movs	r6, #16
 80002f8:	2218      	movs	r2, #24
 80002fa:	2002      	movs	r0, #2
 80002fc:	4fb7      	ldr	r7, [pc, #732]	; (80005dc <_malloc_r+0x300>)
 80002fe:	443a      	add	r2, r7
 8000300:	f1a2 0108 	sub.w	r1, r2, #8
 8000304:	6853      	ldr	r3, [r2, #4]
 8000306:	428b      	cmp	r3, r1
 8000308:	f000 80ba 	beq.w	8000480 <_malloc_r+0x1a4>
 800030c:	685a      	ldr	r2, [r3, #4]
 800030e:	68d9      	ldr	r1, [r3, #12]
 8000310:	f022 0203 	bic.w	r2, r2, #3
 8000314:	441a      	add	r2, r3
 8000316:	689d      	ldr	r5, [r3, #8]
 8000318:	60e9      	str	r1, [r5, #12]
 800031a:	608d      	str	r5, [r1, #8]
 800031c:	6851      	ldr	r1, [r2, #4]
 800031e:	f041 0101 	orr.w	r1, r1, #1
 8000322:	4620      	mov	r0, r4
 8000324:	6051      	str	r1, [r2, #4]
 8000326:	f103 0508 	add.w	r5, r3, #8
 800032a:	f000 fb6f 	bl	8000a0c <__malloc_unlock>
 800032e:	4628      	mov	r0, r5
 8000330:	b003      	add	sp, #12
 8000332:	e8bd 8ff0 	ldmia.w	sp!, {r4, r5, r6, r7, r8, r9, sl, fp, pc}
 8000336:	f036 0607 	bics.w	r6, r6, #7
 800033a:	f100 8094 	bmi.w	8000466 <_malloc_r+0x18a>
 800033e:	42b1      	cmp	r1, r6
 8000340:	f200 8091 	bhi.w	8000466 <_malloc_r+0x18a>
 8000344:	f000 fb60 	bl	8000a08 <__malloc_lock>
 8000348:	f5b6 7ffc 	cmp.w	r6, #504	; 0x1f8
 800034c:	f0c0 8196 	bcc.w	800067c <_malloc_r+0x3a0>
 8000350:	0a73      	lsrs	r3, r6, #9
 8000352:	f000 808f 	beq.w	8000474 <_malloc_r+0x198>
 8000356:	2b04      	cmp	r3, #4
 8000358:	f200 816b 	bhi.w	8000632 <_malloc_r+0x356>
 800035c:	09b3      	lsrs	r3, r6, #6
 800035e:	f103 0039 	add.w	r0, r3, #57	; 0x39
 8000362:	f103 0c38 	add.w	ip, r3, #56	; 0x38
 8000366:	00c3      	lsls	r3, r0, #3
 8000368:	4f9c      	ldr	r7, [pc, #624]	; (80005dc <_malloc_r+0x300>)
 800036a:	443b      	add	r3, r7
 800036c:	f1a3 0508 	sub.w	r5, r3, #8
 8000370:	685b      	ldr	r3, [r3, #4]
 8000372:	429d      	cmp	r5, r3
 8000374:	d106      	bne.n	8000384 <_malloc_r+0xa8>
 8000376:	e00c      	b.n	8000392 <_malloc_r+0xb6>
 8000378:	2900      	cmp	r1, #0
 800037a:	f280 812b 	bge.w	80005d4 <_malloc_r+0x2f8>
 800037e:	68db      	ldr	r3, [r3, #12]
 8000380:	429d      	cmp	r5, r3
 8000382:	d006      	beq.n	8000392 <_malloc_r+0xb6>
 8000384:	685a      	ldr	r2, [r3, #4]
 8000386:	f022 0203 	bic.w	r2, r2, #3
 800038a:	1b91      	subs	r1, r2, r6
 800038c:	290f      	cmp	r1, #15
 800038e:	ddf3      	ble.n	8000378 <_malloc_r+0x9c>
 8000390:	4660      	mov	r0, ip
 8000392:	693d      	ldr	r5, [r7, #16]
 8000394:	f8df c248 	ldr.w	ip, [pc, #584]	; 80005e0 <_malloc_r+0x304>
 8000398:	4565      	cmp	r5, ip
 800039a:	d07c      	beq.n	8000496 <_malloc_r+0x1ba>
 800039c:	686a      	ldr	r2, [r5, #4]
 800039e:	f022 0203 	bic.w	r2, r2, #3
 80003a2:	1b93      	subs	r3, r2, r6
 80003a4:	2b0f      	cmp	r3, #15
 80003a6:	f300 8177 	bgt.w	8000698 <_malloc_r+0x3bc>
 80003aa:	2b00      	cmp	r3, #0
 80003ac:	e9c7 cc04 	strd	ip, ip, [r7, #16]
 80003b0:	f280 8168 	bge.w	8000684 <_malloc_r+0x3a8>
 80003b4:	f5b2 7f00 	cmp.w	r2, #512	; 0x200
 80003b8:	f080 8116 	bcs.w	80005e8 <_malloc_r+0x30c>
 80003bc:	08d3      	lsrs	r3, r2, #3
 80003be:	6879      	ldr	r1, [r7, #4]
 80003c0:	3301      	adds	r3, #1
 80003c2:	ea4f 1e52 	mov.w	lr, r2, lsr #5
 80003c6:	2201      	movs	r2, #1
 80003c8:	fa02 f20e 	lsl.w	r2, r2, lr
 80003cc:	430a      	orrs	r2, r1
 80003ce:	f857 e033 	ldr.w	lr, [r7, r3, lsl #3]
 80003d2:	f8c5 e008 	str.w	lr, [r5, #8]
 80003d6:	eb07 01c3 	add.w	r1, r7, r3, lsl #3
 80003da:	3908      	subs	r1, #8
 80003dc:	60e9      	str	r1, [r5, #12]
 80003de:	607a      	str	r2, [r7, #4]
 80003e0:	f847 5033 	str.w	r5, [r7, r3, lsl #3]
 80003e4:	f8ce 500c 	str.w	r5, [lr, #12]
 80003e8:	1083      	asrs	r3, r0, #2
 80003ea:	2101      	movs	r1, #1
 80003ec:	4099      	lsls	r1, r3
 80003ee:	4291      	cmp	r1, r2
 80003f0:	d857      	bhi.n	80004a2 <_malloc_r+0x1c6>
 80003f2:	4211      	tst	r1, r2
 80003f4:	d106      	bne.n	8000404 <_malloc_r+0x128>
 80003f6:	f020 0003 	bic.w	r0, r0, #3
 80003fa:	0049      	lsls	r1, r1, #1
 80003fc:	4211      	tst	r1, r2
 80003fe:	f100 0004 	add.w	r0, r0, #4
 8000402:	d0fa      	beq.n	80003fa <_malloc_r+0x11e>
 8000404:	eb07 09c0 	add.w	r9, r7, r0, lsl #3
 8000408:	464d      	mov	r5, r9
 800040a:	4686      	mov	lr, r0
 800040c:	f8d5 800c 	ldr.w	r8, [r5, #12]
 8000410:	4545      	cmp	r5, r8
 8000412:	d108      	bne.n	8000426 <_malloc_r+0x14a>
 8000414:	e119      	b.n	800064a <_malloc_r+0x36e>
 8000416:	2b00      	cmp	r3, #0
 8000418:	f280 8120 	bge.w	800065c <_malloc_r+0x380>
 800041c:	f8d8 800c 	ldr.w	r8, [r8, #12]
 8000420:	4545      	cmp	r5, r8
 8000422:	f000 8112 	beq.w	800064a <_malloc_r+0x36e>
 8000426:	f8d8 2004 	ldr.w	r2, [r8, #4]
 800042a:	f022 0203 	bic.w	r2, r2, #3
 800042e:	1b93      	subs	r3, r2, r6
 8000430:	2b0f      	cmp	r3, #15
 8000432:	ddf0      	ble.n	8000416 <_malloc_r+0x13a>
 8000434:	4620      	mov	r0, r4
 8000436:	e9d8 5402 	ldrd	r5, r4, [r8, #8]
 800043a:	eb08 0106 	add.w	r1, r8, r6
 800043e:	f046 0601 	orr.w	r6, r6, #1
 8000442:	f8c8 6004 	str.w	r6, [r8, #4]
 8000446:	60ec      	str	r4, [r5, #12]
 8000448:	60a5      	str	r5, [r4, #8]
 800044a:	f043 0401 	orr.w	r4, r3, #1
 800044e:	e9c7 1104 	strd	r1, r1, [r7, #16]
 8000452:	e9c1 cc02 	strd	ip, ip, [r1, #8]
 8000456:	604c      	str	r4, [r1, #4]
 8000458:	f848 3002 	str.w	r3, [r8, r2]
 800045c:	f000 fad6 	bl	8000a0c <__malloc_unlock>
 8000460:	f108 0508 	add.w	r5, r8, #8
 8000464:	e002      	b.n	800046c <_malloc_r+0x190>
 8000466:	230c      	movs	r3, #12
 8000468:	6023      	str	r3, [r4, #0]
 800046a:	2500      	movs	r5, #0
 800046c:	4628      	mov	r0, r5
 800046e:	b003      	add	sp, #12
 8000470:	e8bd 8ff0 	ldmia.w	sp!, {r4, r5, r6, r7, r8, r9, sl, fp, pc}
 8000474:	f44f 7300 	mov.w	r3, #512	; 0x200
 8000478:	2040      	movs	r0, #64	; 0x40
 800047a:	f04f 0c3f 	mov.w	ip, #63	; 0x3f
 800047e:	e773      	b.n	8000368 <_malloc_r+0x8c>
 8000480:	68d3      	ldr	r3, [r2, #12]
 8000482:	429a      	cmp	r2, r3
 8000484:	bf08      	it	eq
 8000486:	3002      	addeq	r0, #2
 8000488:	f47f af40 	bne.w	800030c <_malloc_r+0x30>
 800048c:	693d      	ldr	r5, [r7, #16]
 800048e:	f8df c150 	ldr.w	ip, [pc, #336]	; 80005e0 <_malloc_r+0x304>
 8000492:	4565      	cmp	r5, ip
 8000494:	d182      	bne.n	800039c <_malloc_r+0xc0>
 8000496:	687a      	ldr	r2, [r7, #4]
 8000498:	1083      	asrs	r3, r0, #2
 800049a:	2101      	movs	r1, #1
 800049c:	4099      	lsls	r1, r3
 800049e:	4291      	cmp	r1, r2
 80004a0:	d9a7      	bls.n	80003f2 <_malloc_r+0x116>
 80004a2:	68bd      	ldr	r5, [r7, #8]
 80004a4:	686b      	ldr	r3, [r5, #4]
 80004a6:	f023 0803 	bic.w	r8, r3, #3
 80004aa:	4546      	cmp	r6, r8
 80004ac:	d803      	bhi.n	80004b6 <_malloc_r+0x1da>
 80004ae:	eba8 0306 	sub.w	r3, r8, r6
 80004b2:	2b0f      	cmp	r3, #15
 80004b4:	dc7e      	bgt.n	80005b4 <_malloc_r+0x2d8>
 80004b6:	f8df 912c 	ldr.w	r9, [pc, #300]	; 80005e4 <_malloc_r+0x308>
 80004ba:	f8d7 2408 	ldr.w	r2, [r7, #1032]	; 0x408
 80004be:	f8d9 3000 	ldr.w	r3, [r9]
 80004c2:	3201      	adds	r2, #1
 80004c4:	4433      	add	r3, r6
 80004c6:	eb05 0a08 	add.w	sl, r5, r8
 80004ca:	f000 812f 	beq.w	800072c <_malloc_r+0x450>
 80004ce:	f503 5380 	add.w	r3, r3, #4096	; 0x1000
 80004d2:	330f      	adds	r3, #15
 80004d4:	f423 6b7f 	bic.w	fp, r3, #4080	; 0xff0
 80004d8:	f02b 0b0f 	bic.w	fp, fp, #15
 80004dc:	4659      	mov	r1, fp
 80004de:	4620      	mov	r0, r4
 80004e0:	f000 faba 	bl	8000a58 <_sbrk_r>
 80004e4:	1c41      	adds	r1, r0, #1
 80004e6:	4602      	mov	r2, r0
 80004e8:	f000 80ef 	beq.w	80006ca <_malloc_r+0x3ee>
 80004ec:	4582      	cmp	sl, r0
 80004ee:	f200 80ea 	bhi.w	80006c6 <_malloc_r+0x3ea>
 80004f2:	f8d9 1004 	ldr.w	r1, [r9, #4]
 80004f6:	4459      	add	r1, fp
 80004f8:	f8c9 1004 	str.w	r1, [r9, #4]
 80004fc:	460b      	mov	r3, r1
 80004fe:	f000 814b 	beq.w	8000798 <_malloc_r+0x4bc>
 8000502:	f8d7 1408 	ldr.w	r1, [r7, #1032]	; 0x408
 8000506:	3101      	adds	r1, #1
 8000508:	bf1b      	ittet	ne
 800050a:	eba2 0a0a 	subne.w	sl, r2, sl
 800050e:	4453      	addne	r3, sl
 8000510:	f8c7 2408 	streq.w	r2, [r7, #1032]	; 0x408
 8000514:	f8c9 3004 	strne.w	r3, [r9, #4]
 8000518:	f012 0307 	ands.w	r3, r2, #7
 800051c:	f000 8112 	beq.w	8000744 <_malloc_r+0x468>
 8000520:	f1c3 0108 	rsb	r1, r3, #8
 8000524:	440a      	add	r2, r1
 8000526:	f5c3 5180 	rsb	r1, r3, #4096	; 0x1000
 800052a:	4493      	add	fp, r2
 800052c:	3108      	adds	r1, #8
 800052e:	eba1 010b 	sub.w	r1, r1, fp
 8000532:	f3c1 0a0b 	ubfx	sl, r1, #0, #12
 8000536:	4651      	mov	r1, sl
 8000538:	4620      	mov	r0, r4
 800053a:	9201      	str	r2, [sp, #4]
 800053c:	9300      	str	r3, [sp, #0]
 800053e:	f000 fa8b 	bl	8000a58 <_sbrk_r>
 8000542:	1c42      	adds	r2, r0, #1
 8000544:	e9dd 3200 	ldrd	r3, r2, [sp]
 8000548:	f000 814b 	beq.w	80007e2 <_malloc_r+0x506>
 800054c:	1a83      	subs	r3, r0, r2
 800054e:	eb03 0b0a 	add.w	fp, r3, sl
 8000552:	f8d9 0004 	ldr.w	r0, [r9, #4]
 8000556:	60ba      	str	r2, [r7, #8]
 8000558:	f04b 0301 	orr.w	r3, fp, #1
 800055c:	eb0a 0100 	add.w	r1, sl, r0
 8000560:	42bd      	cmp	r5, r7
 8000562:	6053      	str	r3, [r2, #4]
 8000564:	f8c9 1004 	str.w	r1, [r9, #4]
 8000568:	f000 8122 	beq.w	80007b0 <_malloc_r+0x4d4>
 800056c:	f1b8 0f0f 	cmp.w	r8, #15
 8000570:	f240 8120 	bls.w	80007b4 <_malloc_r+0x4d8>
 8000574:	686b      	ldr	r3, [r5, #4]
 8000576:	f1a8 000c 	sub.w	r0, r8, #12
 800057a:	f020 0007 	bic.w	r0, r0, #7
 800057e:	f003 0301 	and.w	r3, r3, #1
 8000582:	4303      	orrs	r3, r0
 8000584:	606b      	str	r3, [r5, #4]
 8000586:	f04f 0c05 	mov.w	ip, #5
 800058a:	182b      	adds	r3, r5, r0
 800058c:	280f      	cmp	r0, #15
 800058e:	e9c3 cc01 	strd	ip, ip, [r3, #4]
 8000592:	f200 812d 	bhi.w	80007f0 <_malloc_r+0x514>
 8000596:	6853      	ldr	r3, [r2, #4]
 8000598:	4615      	mov	r5, r2
 800059a:	f8d9 202c 	ldr.w	r2, [r9, #44]	; 0x2c
 800059e:	428a      	cmp	r2, r1
 80005a0:	f8d9 2030 	ldr.w	r2, [r9, #48]	; 0x30
 80005a4:	bf38      	it	cc
 80005a6:	f8c9 102c 	strcc.w	r1, [r9, #44]	; 0x2c
 80005aa:	428a      	cmp	r2, r1
 80005ac:	bf38      	it	cc
 80005ae:	f8c9 1030 	strcc.w	r1, [r9, #48]	; 0x30
 80005b2:	e08c      	b.n	80006ce <_malloc_r+0x3f2>
 80005b4:	19aa      	adds	r2, r5, r6
 80005b6:	f043 0301 	orr.w	r3, r3, #1
 80005ba:	f046 0601 	orr.w	r6, r6, #1
 80005be:	606e      	str	r6, [r5, #4]
 80005c0:	4620      	mov	r0, r4
 80005c2:	60ba      	str	r2, [r7, #8]
 80005c4:	6053      	str	r3, [r2, #4]
 80005c6:	f000 fa21 	bl	8000a0c <__malloc_unlock>
 80005ca:	3508      	adds	r5, #8
 80005cc:	4628      	mov	r0, r5
 80005ce:	b003      	add	sp, #12
 80005d0:	e8bd 8ff0 	ldmia.w	sp!, {r4, r5, r6, r7, r8, r9, sl, fp, pc}
 80005d4:	68d9      	ldr	r1, [r3, #12]
 80005d6:	441a      	add	r2, r3
 80005d8:	e69d      	b.n	8000316 <_malloc_r+0x3a>
 80005da:	bf00      	nop
 80005dc:	20000430 	.word	0x20000430
 80005e0:	20000438 	.word	0x20000438
 80005e4:	200009c4 	.word	0x200009c4
 80005e8:	f5b2 6f20 	cmp.w	r2, #2560	; 0xa00
 80005ec:	ea4f 2352 	mov.w	r3, r2, lsr #9
 80005f0:	d363      	bcc.n	80006ba <_malloc_r+0x3de>
 80005f2:	2b14      	cmp	r3, #20
 80005f4:	f200 80b8 	bhi.w	8000768 <_malloc_r+0x48c>
 80005f8:	f103 015c 	add.w	r1, r3, #92	; 0x5c
 80005fc:	00c9      	lsls	r1, r1, #3
 80005fe:	335b      	adds	r3, #91	; 0x5b
 8000600:	eb07 0e01 	add.w	lr, r7, r1
 8000604:	5879      	ldr	r1, [r7, r1]
 8000606:	f1ae 0e08 	sub.w	lr, lr, #8
 800060a:	458e      	cmp	lr, r1
 800060c:	f000 8091 	beq.w	8000732 <_malloc_r+0x456>
 8000610:	684b      	ldr	r3, [r1, #4]
 8000612:	f023 0303 	bic.w	r3, r3, #3
 8000616:	4293      	cmp	r3, r2
 8000618:	d902      	bls.n	8000620 <_malloc_r+0x344>
 800061a:	6889      	ldr	r1, [r1, #8]
 800061c:	458e      	cmp	lr, r1
 800061e:	d1f7      	bne.n	8000610 <_malloc_r+0x334>
 8000620:	f8d1 e00c 	ldr.w	lr, [r1, #12]
 8000624:	687a      	ldr	r2, [r7, #4]
 8000626:	e9c5 1e02 	strd	r1, lr, [r5, #8]
 800062a:	f8ce 5008 	str.w	r5, [lr, #8]
 800062e:	60cd      	str	r5, [r1, #12]
 8000630:	e6da      	b.n	80003e8 <_malloc_r+0x10c>
 8000632:	2b14      	cmp	r3, #20
 8000634:	d959      	bls.n	80006ea <_malloc_r+0x40e>
 8000636:	2b54      	cmp	r3, #84	; 0x54
 8000638:	f200 809e 	bhi.w	8000778 <_malloc_r+0x49c>
 800063c:	0b33      	lsrs	r3, r6, #12
 800063e:	f103 006f 	add.w	r0, r3, #111	; 0x6f
 8000642:	f103 0c6e 	add.w	ip, r3, #110	; 0x6e
 8000646:	00c3      	lsls	r3, r0, #3
 8000648:	e68e      	b.n	8000368 <_malloc_r+0x8c>
 800064a:	f10e 0e01 	add.w	lr, lr, #1
 800064e:	f01e 0f03 	tst.w	lr, #3
 8000652:	f105 0508 	add.w	r5, r5, #8
 8000656:	f47f aed9 	bne.w	800040c <_malloc_r+0x130>
 800065a:	e051      	b.n	8000700 <_malloc_r+0x424>
 800065c:	4442      	add	r2, r8
 800065e:	4645      	mov	r5, r8
 8000660:	6853      	ldr	r3, [r2, #4]
 8000662:	f8d8 100c 	ldr.w	r1, [r8, #12]
 8000666:	f043 0301 	orr.w	r3, r3, #1
 800066a:	6053      	str	r3, [r2, #4]
 800066c:	f855 3f08 	ldr.w	r3, [r5, #8]!
 8000670:	4620      	mov	r0, r4
 8000672:	60d9      	str	r1, [r3, #12]
 8000674:	608b      	str	r3, [r1, #8]
 8000676:	f000 f9c9 	bl	8000a0c <__malloc_unlock>
 800067a:	e6f7      	b.n	800046c <_malloc_r+0x190>
 800067c:	08f0      	lsrs	r0, r6, #3
 800067e:	f106 0208 	add.w	r2, r6, #8
 8000682:	e63b      	b.n	80002fc <_malloc_r+0x20>
 8000684:	442a      	add	r2, r5
 8000686:	4620      	mov	r0, r4
 8000688:	6853      	ldr	r3, [r2, #4]
 800068a:	f043 0301 	orr.w	r3, r3, #1
 800068e:	6053      	str	r3, [r2, #4]
 8000690:	3508      	adds	r5, #8
 8000692:	f000 f9bb 	bl	8000a0c <__malloc_unlock>
 8000696:	e6e9      	b.n	800046c <_malloc_r+0x190>
 8000698:	19a9      	adds	r1, r5, r6
 800069a:	4620      	mov	r0, r4
 800069c:	f046 0601 	orr.w	r6, r6, #1
 80006a0:	f043 0401 	orr.w	r4, r3, #1
 80006a4:	606e      	str	r6, [r5, #4]
 80006a6:	e9c7 1104 	strd	r1, r1, [r7, #16]
 80006aa:	e9c1 cc02 	strd	ip, ip, [r1, #8]
 80006ae:	604c      	str	r4, [r1, #4]
 80006b0:	50ab      	str	r3, [r5, r2]
 80006b2:	f000 f9ab 	bl	8000a0c <__malloc_unlock>
 80006b6:	3508      	adds	r5, #8
 80006b8:	e6d8      	b.n	800046c <_malloc_r+0x190>
 80006ba:	0993      	lsrs	r3, r2, #6
 80006bc:	f103 0139 	add.w	r1, r3, #57	; 0x39
 80006c0:	00c9      	lsls	r1, r1, #3
 80006c2:	3338      	adds	r3, #56	; 0x38
 80006c4:	e79c      	b.n	8000600 <_malloc_r+0x324>
 80006c6:	42bd      	cmp	r5, r7
 80006c8:	d060      	beq.n	800078c <_malloc_r+0x4b0>
 80006ca:	68bd      	ldr	r5, [r7, #8]
 80006cc:	686b      	ldr	r3, [r5, #4]
 80006ce:	f023 0b03 	bic.w	fp, r3, #3
 80006d2:	455e      	cmp	r6, fp
 80006d4:	ebab 0306 	sub.w	r3, fp, r6
 80006d8:	d802      	bhi.n	80006e0 <_malloc_r+0x404>
 80006da:	2b0f      	cmp	r3, #15
 80006dc:	f73f af6a 	bgt.w	80005b4 <_malloc_r+0x2d8>
 80006e0:	4620      	mov	r0, r4
 80006e2:	f000 f993 	bl	8000a0c <__malloc_unlock>
 80006e6:	2500      	movs	r5, #0
 80006e8:	e6c0      	b.n	800046c <_malloc_r+0x190>
 80006ea:	f103 005c 	add.w	r0, r3, #92	; 0x5c
 80006ee:	f103 0c5b 	add.w	ip, r3, #91	; 0x5b
 80006f2:	00c3      	lsls	r3, r0, #3
 80006f4:	e638      	b.n	8000368 <_malloc_r+0x8c>
 80006f6:	f859 3908 	ldr.w	r3, [r9], #-8
 80006fa:	454b      	cmp	r3, r9
 80006fc:	f040 8096 	bne.w	800082c <_malloc_r+0x550>
 8000700:	f010 0f03 	tst.w	r0, #3
 8000704:	f100 30ff 	add.w	r0, r0, #4294967295	; 0xffffffff
 8000708:	d1f5      	bne.n	80006f6 <_malloc_r+0x41a>
 800070a:	687b      	ldr	r3, [r7, #4]
 800070c:	ea23 0301 	bic.w	r3, r3, r1
 8000710:	607b      	str	r3, [r7, #4]
 8000712:	0049      	lsls	r1, r1, #1
 8000714:	4299      	cmp	r1, r3
 8000716:	f63f aec4 	bhi.w	80004a2 <_malloc_r+0x1c6>
 800071a:	b919      	cbnz	r1, 8000724 <_malloc_r+0x448>
 800071c:	e6c1      	b.n	80004a2 <_malloc_r+0x1c6>
 800071e:	0049      	lsls	r1, r1, #1
 8000720:	f10e 0e04 	add.w	lr, lr, #4
 8000724:	4219      	tst	r1, r3
 8000726:	d0fa      	beq.n	800071e <_malloc_r+0x442>
 8000728:	4670      	mov	r0, lr
 800072a:	e66b      	b.n	8000404 <_malloc_r+0x128>
 800072c:	f103 0b10 	add.w	fp, r3, #16
 8000730:	e6d4      	b.n	80004dc <_malloc_r+0x200>
 8000732:	109a      	asrs	r2, r3, #2
 8000734:	f04f 0801 	mov.w	r8, #1
 8000738:	687b      	ldr	r3, [r7, #4]
 800073a:	fa08 f202 	lsl.w	r2, r8, r2
 800073e:	431a      	orrs	r2, r3
 8000740:	607a      	str	r2, [r7, #4]
 8000742:	e770      	b.n	8000626 <_malloc_r+0x34a>
 8000744:	eb02 010b 	add.w	r1, r2, fp
 8000748:	4249      	negs	r1, r1
 800074a:	f3c1 0a0b 	ubfx	sl, r1, #0, #12
 800074e:	4651      	mov	r1, sl
 8000750:	4620      	mov	r0, r4
 8000752:	9301      	str	r3, [sp, #4]
 8000754:	9200      	str	r2, [sp, #0]
 8000756:	f000 f97f 	bl	8000a58 <_sbrk_r>
 800075a:	1c43      	adds	r3, r0, #1
 800075c:	e9dd 2300 	ldrd	r2, r3, [sp]
 8000760:	f47f aef4 	bne.w	800054c <_malloc_r+0x270>
 8000764:	469a      	mov	sl, r3
 8000766:	e6f4      	b.n	8000552 <_malloc_r+0x276>
 8000768:	2b54      	cmp	r3, #84	; 0x54
 800076a:	d826      	bhi.n	80007ba <_malloc_r+0x4de>
 800076c:	0b13      	lsrs	r3, r2, #12
 800076e:	f103 016f 	add.w	r1, r3, #111	; 0x6f
 8000772:	00c9      	lsls	r1, r1, #3
 8000774:	336e      	adds	r3, #110	; 0x6e
 8000776:	e743      	b.n	8000600 <_malloc_r+0x324>
 8000778:	f5b3 7faa 	cmp.w	r3, #340	; 0x154
 800077c:	d826      	bhi.n	80007cc <_malloc_r+0x4f0>
 800077e:	0bf3      	lsrs	r3, r6, #15
 8000780:	f103 0078 	add.w	r0, r3, #120	; 0x78
 8000784:	f103 0c77 	add.w	ip, r3, #119	; 0x77
 8000788:	00c3      	lsls	r3, r0, #3
 800078a:	e5ed      	b.n	8000368 <_malloc_r+0x8c>
 800078c:	f8d9 3004 	ldr.w	r3, [r9, #4]
 8000790:	445b      	add	r3, fp
 8000792:	f8c9 3004 	str.w	r3, [r9, #4]
 8000796:	e6b4      	b.n	8000502 <_malloc_r+0x226>
 8000798:	f3ca 000b 	ubfx	r0, sl, #0, #12
 800079c:	2800      	cmp	r0, #0
 800079e:	f47f aeb0 	bne.w	8000502 <_malloc_r+0x226>
 80007a2:	68bd      	ldr	r5, [r7, #8]
 80007a4:	eb08 030b 	add.w	r3, r8, fp
 80007a8:	f043 0301 	orr.w	r3, r3, #1
 80007ac:	606b      	str	r3, [r5, #4]
 80007ae:	e6f4      	b.n	800059a <_malloc_r+0x2be>
 80007b0:	4615      	mov	r5, r2
 80007b2:	e6f2      	b.n	800059a <_malloc_r+0x2be>
 80007b4:	2301      	movs	r3, #1
 80007b6:	6053      	str	r3, [r2, #4]
 80007b8:	e792      	b.n	80006e0 <_malloc_r+0x404>
 80007ba:	f5b3 7faa 	cmp.w	r3, #340	; 0x154
 80007be:	d821      	bhi.n	8000804 <_malloc_r+0x528>
 80007c0:	0bd3      	lsrs	r3, r2, #15
 80007c2:	f103 0178 	add.w	r1, r3, #120	; 0x78
 80007c6:	00c9      	lsls	r1, r1, #3
 80007c8:	3377      	adds	r3, #119	; 0x77
 80007ca:	e719      	b.n	8000600 <_malloc_r+0x324>
 80007cc:	f240 5254 	movw	r2, #1364	; 0x554
 80007d0:	4293      	cmp	r3, r2
 80007d2:	d821      	bhi.n	8000818 <_malloc_r+0x53c>
 80007d4:	0cb3      	lsrs	r3, r6, #18
 80007d6:	f103 007d 	add.w	r0, r3, #125	; 0x7d
 80007da:	f103 0c7c 	add.w	ip, r3, #124	; 0x7c
 80007de:	00c3      	lsls	r3, r0, #3
 80007e0:	e5c2      	b.n	8000368 <_malloc_r+0x8c>
 80007e2:	3b08      	subs	r3, #8
 80007e4:	449b      	add	fp, r3
 80007e6:	ebab 0b02 	sub.w	fp, fp, r2
 80007ea:	f04f 0a00 	mov.w	sl, #0
 80007ee:	e6b0      	b.n	8000552 <_malloc_r+0x276>
 80007f0:	f105 0108 	add.w	r1, r5, #8
 80007f4:	4620      	mov	r0, r4
 80007f6:	f000 fa37 	bl	8000c68 <_free_r>
 80007fa:	68bd      	ldr	r5, [r7, #8]
 80007fc:	f8d9 1004 	ldr.w	r1, [r9, #4]
 8000800:	686b      	ldr	r3, [r5, #4]
 8000802:	e6ca      	b.n	800059a <_malloc_r+0x2be>
 8000804:	f240 5154 	movw	r1, #1364	; 0x554
 8000808:	428b      	cmp	r3, r1
 800080a:	d80b      	bhi.n	8000824 <_malloc_r+0x548>
 800080c:	0c93      	lsrs	r3, r2, #18
 800080e:	f103 017d 	add.w	r1, r3, #125	; 0x7d
 8000812:	00c9      	lsls	r1, r1, #3
 8000814:	337c      	adds	r3, #124	; 0x7c
 8000816:	e6f3      	b.n	8000600 <_malloc_r+0x324>
 8000818:	f44f 737e 	mov.w	r3, #1016	; 0x3f8
 800081c:	207f      	movs	r0, #127	; 0x7f
 800081e:	f04f 0c7e 	mov.w	ip, #126	; 0x7e
 8000822:	e5a1      	b.n	8000368 <_malloc_r+0x8c>
 8000824:	f44f 717e 	mov.w	r1, #1016	; 0x3f8
 8000828:	237e      	movs	r3, #126	; 0x7e
 800082a:	e6e9      	b.n	8000600 <_malloc_r+0x324>
 800082c:	687b      	ldr	r3, [r7, #4]
 800082e:	e770      	b.n	8000712 <_malloc_r+0x436>

08000830 <memcpy>:
 8000830:	4684      	mov	ip, r0
 8000832:	ea41 0300 	orr.w	r3, r1, r0
 8000836:	f013 0303 	ands.w	r3, r3, #3
 800083a:	d16d      	bne.n	8000918 <memcpy+0xe8>
 800083c:	3a40      	subs	r2, #64	; 0x40
 800083e:	d341      	bcc.n	80008c4 <memcpy+0x94>
 8000840:	f851 3b04 	ldr.w	r3, [r1], #4
 8000844:	f840 3b04 	str.w	r3, [r0], #4
 8000848:	f851 3b04 	ldr.w	r3, [r1], #4
 800084c:	f840 3b04 	str.w	r3, [r0], #4
 8000850:	f851 3b04 	ldr.w	r3, [r1], #4
 8000854:	f840 3b04 	str.w	r3, [r0], #4
 8000858:	f851 3b04 	ldr.w	r3, [r1], #4
 800085c:	f840 3b04 	str.w	r3, [r0], #4
 8000860:	f851 3b04 	ldr.w	r3, [r1], #4
 8000864:	f840 3b04 	str.w	r3, [r0], #4
 8000868:	f851 3b04 	ldr.w	r3, [r1], #4
 800086c:	f840 3b04 	str.w	r3, [r0], #4
 8000870:	f851 3b04 	ldr.w	r3, [r1], #4
 8000874:	f840 3b04 	str.w	r3, [r0], #4
 8000878:	f851 3b04 	ldr.w	r3, [r1], #4
 800087c:	f840 3b04 	str.w	r3, [r0], #4
 8000880:	f851 3b04 	ldr.w	r3, [r1], #4
 8000884:	f840 3b04 	str.w	r3, [r0], #4
 8000888:	f851 3b04 	ldr.w	r3, [r1], #4
 800088c:	f840 3b04 	str.w	r3, [r0], #4
 8000890:	f851 3b04 	ldr.w	r3, [r1], #4
 8000894:	f840 3b04 	str.w	r3, [r0], #4
 8000898:	f851 3b04 	ldr.w	r3, [r1], #4
 800089c:	f840 3b04 	str.w	r3, [r0], #4
 80008a0:	f851 3b04 	ldr.w	r3, [r1], #4
 80008a4:	f840 3b04 	str.w	r3, [r0], #4
 80008a8:	f851 3b04 	ldr.w	r3, [r1], #4
 80008ac:	f840 3b04 	str.w	r3, [r0], #4
 80008b0:	f851 3b04 	ldr.w	r3, [r1], #4
 80008b4:	f840 3b04 	str.w	r3, [r0], #4
 80008b8:	f851 3b04 	ldr.w	r3, [r1], #4
 80008bc:	f840 3b04 	str.w	r3, [r0], #4
 80008c0:	3a40      	subs	r2, #64	; 0x40
 80008c2:	d2bd      	bcs.n	8000840 <memcpy+0x10>
 80008c4:	3230      	adds	r2, #48	; 0x30
 80008c6:	d311      	bcc.n	80008ec <memcpy+0xbc>
 80008c8:	f851 3b04 	ldr.w	r3, [r1], #4
 80008cc:	f840 3b04 	str.w	r3, [r0], #4
 80008d0:	f851 3b04 	ldr.w	r3, [r1], #4
 80008d4:	f840 3b04 	str.w	r3, [r0], #4
 80008d8:	f851 3b04 	ldr.w	r3, [r1], #4
 80008dc:	f840 3b04 	str.w	r3, [r0], #4
 80008e0:	f851 3b04 	ldr.w	r3, [r1], #4
 80008e4:	f840 3b04 	str.w	r3, [r0], #4
 80008e8:	3a10      	subs	r2, #16
 80008ea:	d2ed      	bcs.n	80008c8 <memcpy+0x98>
 80008ec:	320c      	adds	r2, #12
 80008ee:	d305      	bcc.n	80008fc <memcpy+0xcc>
 80008f0:	f851 3b04 	ldr.w	r3, [r1], #4
 80008f4:	f840 3b04 	str.w	r3, [r0], #4
 80008f8:	3a04      	subs	r2, #4
 80008fa:	d2f9      	bcs.n	80008f0 <memcpy+0xc0>
 80008fc:	3204      	adds	r2, #4
 80008fe:	d008      	beq.n	8000912 <memcpy+0xe2>
 8000900:	07d2      	lsls	r2, r2, #31
 8000902:	bf1c      	itt	ne
 8000904:	f811 3b01 	ldrbne.w	r3, [r1], #1
 8000908:	f800 3b01 	strbne.w	r3, [r0], #1
 800090c:	d301      	bcc.n	8000912 <memcpy+0xe2>
 800090e:	880b      	ldrh	r3, [r1, #0]
 8000910:	8003      	strh	r3, [r0, #0]
 8000912:	4660      	mov	r0, ip
 8000914:	4770      	bx	lr
 8000916:	bf00      	nop
 8000918:	2a08      	cmp	r2, #8
 800091a:	d313      	bcc.n	8000944 <memcpy+0x114>
 800091c:	078b      	lsls	r3, r1, #30
 800091e:	d08d      	beq.n	800083c <memcpy+0xc>
 8000920:	f010 0303 	ands.w	r3, r0, #3
 8000924:	d08a      	beq.n	800083c <memcpy+0xc>
 8000926:	f1c3 0304 	rsb	r3, r3, #4
 800092a:	1ad2      	subs	r2, r2, r3
 800092c:	07db      	lsls	r3, r3, #31
 800092e:	bf1c      	itt	ne
 8000930:	f811 3b01 	ldrbne.w	r3, [r1], #1
 8000934:	f800 3b01 	strbne.w	r3, [r0], #1
 8000938:	d380      	bcc.n	800083c <memcpy+0xc>
 800093a:	f831 3b02 	ldrh.w	r3, [r1], #2
 800093e:	f820 3b02 	strh.w	r3, [r0], #2
 8000942:	e77b      	b.n	800083c <memcpy+0xc>
 8000944:	3a04      	subs	r2, #4
 8000946:	d3d9      	bcc.n	80008fc <memcpy+0xcc>
 8000948:	3a01      	subs	r2, #1
 800094a:	f811 3b01 	ldrb.w	r3, [r1], #1
 800094e:	f800 3b01 	strb.w	r3, [r0], #1
 8000952:	d2f9      	bcs.n	8000948 <memcpy+0x118>
 8000954:	780b      	ldrb	r3, [r1, #0]
 8000956:	7003      	strb	r3, [r0, #0]
 8000958:	784b      	ldrb	r3, [r1, #1]
 800095a:	7043      	strb	r3, [r0, #1]
 800095c:	788b      	ldrb	r3, [r1, #2]
 800095e:	7083      	strb	r3, [r0, #2]
 8000960:	4660      	mov	r0, ip
 8000962:	4770      	bx	lr

08000964 <memset>:
 8000964:	0783      	lsls	r3, r0, #30
 8000966:	b530      	push	{r4, r5, lr}
 8000968:	d048      	beq.n	80009fc <memset+0x98>
 800096a:	1e54      	subs	r4, r2, #1
 800096c:	2a00      	cmp	r2, #0
 800096e:	d03f      	beq.n	80009f0 <memset+0x8c>
 8000970:	b2ca      	uxtb	r2, r1
 8000972:	4603      	mov	r3, r0
 8000974:	e001      	b.n	800097a <memset+0x16>
 8000976:	3c01      	subs	r4, #1
 8000978:	d33a      	bcc.n	80009f0 <memset+0x8c>
 800097a:	f803 2b01 	strb.w	r2, [r3], #1
 800097e:	079d      	lsls	r5, r3, #30
 8000980:	d1f9      	bne.n	8000976 <memset+0x12>
 8000982:	2c03      	cmp	r4, #3
 8000984:	d92d      	bls.n	80009e2 <memset+0x7e>
 8000986:	b2cd      	uxtb	r5, r1
 8000988:	ea45 2505 	orr.w	r5, r5, r5, lsl #8
 800098c:	2c0f      	cmp	r4, #15
 800098e:	ea45 4505 	orr.w	r5, r5, r5, lsl #16
 8000992:	d936      	bls.n	8000a02 <memset+0x9e>
 8000994:	f1a4 0210 	sub.w	r2, r4, #16
 8000998:	f022 0c0f 	bic.w	ip, r2, #15
 800099c:	f103 0e20 	add.w	lr, r3, #32
 80009a0:	44e6      	add	lr, ip
 80009a2:	ea4f 1c12 	mov.w	ip, r2, lsr #4
 80009a6:	f103 0210 	add.w	r2, r3, #16
 80009aa:	e942 5504 	strd	r5, r5, [r2, #-16]
 80009ae:	e942 5502 	strd	r5, r5, [r2, #-8]
 80009b2:	3210      	adds	r2, #16
 80009b4:	4572      	cmp	r2, lr
 80009b6:	d1f8      	bne.n	80009aa <memset+0x46>
 80009b8:	f10c 0201 	add.w	r2, ip, #1
 80009bc:	f014 0f0c 	tst.w	r4, #12
 80009c0:	eb03 1202 	add.w	r2, r3, r2, lsl #4
 80009c4:	f004 0c0f 	and.w	ip, r4, #15
 80009c8:	d013      	beq.n	80009f2 <memset+0x8e>
 80009ca:	f1ac 0304 	sub.w	r3, ip, #4
 80009ce:	f023 0303 	bic.w	r3, r3, #3
 80009d2:	3304      	adds	r3, #4
 80009d4:	4413      	add	r3, r2
 80009d6:	f842 5b04 	str.w	r5, [r2], #4
 80009da:	4293      	cmp	r3, r2
 80009dc:	d1fb      	bne.n	80009d6 <memset+0x72>
 80009de:	f00c 0403 	and.w	r4, ip, #3
 80009e2:	b12c      	cbz	r4, 80009f0 <memset+0x8c>
 80009e4:	b2ca      	uxtb	r2, r1
 80009e6:	441c      	add	r4, r3
 80009e8:	f803 2b01 	strb.w	r2, [r3], #1
 80009ec:	429c      	cmp	r4, r3
 80009ee:	d1fb      	bne.n	80009e8 <memset+0x84>
 80009f0:	bd30      	pop	{r4, r5, pc}
 80009f2:	4664      	mov	r4, ip
 80009f4:	4613      	mov	r3, r2
 80009f6:	2c00      	cmp	r4, #0
 80009f8:	d1f4      	bne.n	80009e4 <memset+0x80>
 80009fa:	e7f9      	b.n	80009f0 <memset+0x8c>
 80009fc:	4603      	mov	r3, r0
 80009fe:	4614      	mov	r4, r2
 8000a00:	e7bf      	b.n	8000982 <memset+0x1e>
 8000a02:	461a      	mov	r2, r3
 8000a04:	46a4      	mov	ip, r4
 8000a06:	e7e0      	b.n	80009ca <memset+0x66>

08000a08 <__malloc_lock>:
 8000a08:	4770      	bx	lr
 8000a0a:	bf00      	nop

08000a0c <__malloc_unlock>:
 8000a0c:	4770      	bx	lr
 8000a0e:	bf00      	nop

08000a10 <srand>:
 8000a10:	4b02      	ldr	r3, [pc, #8]	; (8000a1c <srand+0xc>)
 8000a12:	681b      	ldr	r3, [r3, #0]
 8000a14:	2200      	movs	r2, #0
 8000a16:	e9c3 022a 	strd	r0, r2, [r3, #168]	; 0xa8
 8000a1a:	4770      	bx	lr
 8000a1c:	20000000 	.word	0x20000000

08000a20 <rand>:
 8000a20:	4a0a      	ldr	r2, [pc, #40]	; (8000a4c <rand+0x2c>)
 8000a22:	490b      	ldr	r1, [pc, #44]	; (8000a50 <rand+0x30>)
 8000a24:	b410      	push	{r4}
 8000a26:	6814      	ldr	r4, [r2, #0]
 8000a28:	4a0a      	ldr	r2, [pc, #40]	; (8000a54 <rand+0x34>)
 8000a2a:	e9d4 032a 	ldrd	r0, r3, [r4, #168]	; 0xa8
 8000a2e:	fb00 f202 	mul.w	r2, r0, r2
 8000a32:	fb01 2203 	mla	r2, r1, r3, r2
 8000a36:	fba0 0101 	umull	r0, r1, r0, r1
 8000a3a:	1c43      	adds	r3, r0, #1
 8000a3c:	eb42 0001 	adc.w	r0, r2, r1
 8000a40:	e9c4 302a 	strd	r3, r0, [r4, #168]	; 0xa8
 8000a44:	f020 4000 	bic.w	r0, r0, #2147483648	; 0x80000000
 8000a48:	bc10      	pop	{r4}
 8000a4a:	4770      	bx	lr
 8000a4c:	20000000 	.word	0x20000000
 8000a50:	4c957f2d 	.word	0x4c957f2d
 8000a54:	5851f42d 	.word	0x5851f42d

08000a58 <_sbrk_r>:
 8000a58:	b538      	push	{r3, r4, r5, lr}
 8000a5a:	4d07      	ldr	r5, [pc, #28]	; (8000a78 <_sbrk_r+0x20>)
 8000a5c:	2200      	movs	r2, #0
 8000a5e:	4604      	mov	r4, r0
 8000a60:	4608      	mov	r0, r1
 8000a62:	602a      	str	r2, [r5, #0]
 8000a64:	f003 f9d2 	bl	8003e0c <_sbrk>
 8000a68:	1c43      	adds	r3, r0, #1
 8000a6a:	d000      	beq.n	8000a6e <_sbrk_r+0x16>
 8000a6c:	bd38      	pop	{r3, r4, r5, pc}
 8000a6e:	682b      	ldr	r3, [r5, #0]
 8000a70:	2b00      	cmp	r3, #0
 8000a72:	d0fb      	beq.n	8000a6c <_sbrk_r+0x14>
 8000a74:	6023      	str	r3, [r4, #0]
 8000a76:	bd38      	pop	{r3, r4, r5, pc}
 8000a78:	200009f8 	.word	0x200009f8

08000a7c <time>:
 8000a7c:	b510      	push	{r4, lr}
 8000a7e:	4b0b      	ldr	r3, [pc, #44]	; (8000aac <time+0x30>)
 8000a80:	b084      	sub	sp, #16
 8000a82:	4604      	mov	r4, r0
 8000a84:	2200      	movs	r2, #0
 8000a86:	6818      	ldr	r0, [r3, #0]
 8000a88:	4669      	mov	r1, sp
 8000a8a:	f000 f9f3 	bl	8000e74 <_gettimeofday_r>
 8000a8e:	2800      	cmp	r0, #0
 8000a90:	db06      	blt.n	8000aa0 <time+0x24>
 8000a92:	e9dd 0100 	ldrd	r0, r1, [sp]
 8000a96:	b10c      	cbz	r4, 8000a9c <time+0x20>
 8000a98:	e9c4 0100 	strd	r0, r1, [r4]
 8000a9c:	b004      	add	sp, #16
 8000a9e:	bd10      	pop	{r4, pc}
 8000aa0:	f04f 30ff 	mov.w	r0, #4294967295	; 0xffffffff
 8000aa4:	f04f 31ff 	mov.w	r1, #4294967295	; 0xffffffff
 8000aa8:	e7f5      	b.n	8000a96 <time+0x1a>
 8000aaa:	bf00      	nop
 8000aac:	20000000 	.word	0x20000000

08000ab0 <__register_exitproc>:
 8000ab0:	b470      	push	{r4, r5, r6}
 8000ab2:	4c18      	ldr	r4, [pc, #96]	; (8000b14 <__register_exitproc+0x64>)
 8000ab4:	6825      	ldr	r5, [r4, #0]
 8000ab6:	f8d5 4148 	ldr.w	r4, [r5, #328]	; 0x148
 8000aba:	b31c      	cbz	r4, 8000b04 <__register_exitproc+0x54>
 8000abc:	6865      	ldr	r5, [r4, #4]
 8000abe:	2d1f      	cmp	r5, #31
 8000ac0:	dc25      	bgt.n	8000b0e <__register_exitproc+0x5e>
 8000ac2:	b938      	cbnz	r0, 8000ad4 <__register_exitproc+0x24>
 8000ac4:	1cab      	adds	r3, r5, #2
 8000ac6:	3501      	adds	r5, #1
 8000ac8:	6065      	str	r5, [r4, #4]
 8000aca:	f844 1023 	str.w	r1, [r4, r3, lsl #2]
 8000ace:	2000      	movs	r0, #0
 8000ad0:	bc70      	pop	{r4, r5, r6}
 8000ad2:	4770      	bx	lr
 8000ad4:	eb04 0c85 	add.w	ip, r4, r5, lsl #2
 8000ad8:	2802      	cmp	r0, #2
 8000ada:	f8cc 2088 	str.w	r2, [ip, #136]	; 0x88
 8000ade:	f8d4 6188 	ldr.w	r6, [r4, #392]	; 0x188
 8000ae2:	f04f 0201 	mov.w	r2, #1
 8000ae6:	fa02 f205 	lsl.w	r2, r2, r5
 8000aea:	ea46 0602 	orr.w	r6, r6, r2
 8000aee:	f8c4 6188 	str.w	r6, [r4, #392]	; 0x188
 8000af2:	f8cc 3108 	str.w	r3, [ip, #264]	; 0x108
 8000af6:	d1e5      	bne.n	8000ac4 <__register_exitproc+0x14>
 8000af8:	f8d4 318c 	ldr.w	r3, [r4, #396]	; 0x18c
 8000afc:	4313      	orrs	r3, r2
 8000afe:	f8c4 318c 	str.w	r3, [r4, #396]	; 0x18c
 8000b02:	e7df      	b.n	8000ac4 <__register_exitproc+0x14>
 8000b04:	f505 74a6 	add.w	r4, r5, #332	; 0x14c
 8000b08:	f8c5 4148 	str.w	r4, [r5, #328]	; 0x148
 8000b0c:	e7d6      	b.n	8000abc <__register_exitproc+0xc>
 8000b0e:	f04f 30ff 	mov.w	r0, #4294967295	; 0xffffffff
 8000b12:	e7dd      	b.n	8000ad0 <__register_exitproc+0x20>
 8000b14:	080043c0 	.word	0x080043c0

08000b18 <__call_exitprocs>:
 8000b18:	e92d 4ff0 	stmdb	sp!, {r4, r5, r6, r7, r8, r9, sl, fp, lr}
 8000b1c:	4b29      	ldr	r3, [pc, #164]	; (8000bc4 <__call_exitprocs+0xac>)
 8000b1e:	681f      	ldr	r7, [r3, #0]
 8000b20:	b083      	sub	sp, #12
 8000b22:	f8d7 6148 	ldr.w	r6, [r7, #328]	; 0x148
 8000b26:	9001      	str	r0, [sp, #4]
 8000b28:	b1b6      	cbz	r6, 8000b58 <__call_exitprocs+0x40>
 8000b2a:	468b      	mov	fp, r1
 8000b2c:	f04f 0801 	mov.w	r8, #1
 8000b30:	f04f 0900 	mov.w	r9, #0
 8000b34:	6874      	ldr	r4, [r6, #4]
 8000b36:	1e65      	subs	r5, r4, #1
 8000b38:	d40e      	bmi.n	8000b58 <__call_exitprocs+0x40>
 8000b3a:	3401      	adds	r4, #1
 8000b3c:	eb06 0484 	add.w	r4, r6, r4, lsl #2
 8000b40:	f1bb 0f00 	cmp.w	fp, #0
 8000b44:	d00b      	beq.n	8000b5e <__call_exitprocs+0x46>
 8000b46:	f8d4 3100 	ldr.w	r3, [r4, #256]	; 0x100
 8000b4a:	455b      	cmp	r3, fp
 8000b4c:	d007      	beq.n	8000b5e <__call_exitprocs+0x46>
 8000b4e:	3d01      	subs	r5, #1
 8000b50:	1c6b      	adds	r3, r5, #1
 8000b52:	f1a4 0404 	sub.w	r4, r4, #4
 8000b56:	d1f3      	bne.n	8000b40 <__call_exitprocs+0x28>
 8000b58:	b003      	add	sp, #12
 8000b5a:	e8bd 8ff0 	ldmia.w	sp!, {r4, r5, r6, r7, r8, r9, sl, fp, pc}
 8000b5e:	6873      	ldr	r3, [r6, #4]
 8000b60:	6822      	ldr	r2, [r4, #0]
 8000b62:	3b01      	subs	r3, #1
 8000b64:	42ab      	cmp	r3, r5
 8000b66:	bf0c      	ite	eq
 8000b68:	6075      	streq	r5, [r6, #4]
 8000b6a:	f8c4 9000 	strne.w	r9, [r4]
 8000b6e:	2a00      	cmp	r2, #0
 8000b70:	d0ed      	beq.n	8000b4e <__call_exitprocs+0x36>
 8000b72:	f8d6 0188 	ldr.w	r0, [r6, #392]	; 0x188
 8000b76:	f8d6 a004 	ldr.w	sl, [r6, #4]
 8000b7a:	fa08 f105 	lsl.w	r1, r8, r5
 8000b7e:	4201      	tst	r1, r0
 8000b80:	d10b      	bne.n	8000b9a <__call_exitprocs+0x82>
 8000b82:	4790      	blx	r2
 8000b84:	6872      	ldr	r2, [r6, #4]
 8000b86:	4552      	cmp	r2, sl
 8000b88:	d112      	bne.n	8000bb0 <__call_exitprocs+0x98>
 8000b8a:	f8d7 3148 	ldr.w	r3, [r7, #328]	; 0x148
 8000b8e:	42b3      	cmp	r3, r6
 8000b90:	d0dd      	beq.n	8000b4e <__call_exitprocs+0x36>
 8000b92:	461e      	mov	r6, r3
 8000b94:	2e00      	cmp	r6, #0
 8000b96:	d1cd      	bne.n	8000b34 <__call_exitprocs+0x1c>
 8000b98:	e7de      	b.n	8000b58 <__call_exitprocs+0x40>
 8000b9a:	f8d6 018c 	ldr.w	r0, [r6, #396]	; 0x18c
 8000b9e:	4201      	tst	r1, r0
 8000ba0:	d10b      	bne.n	8000bba <__call_exitprocs+0xa2>
 8000ba2:	f8d4 1080 	ldr.w	r1, [r4, #128]	; 0x80
 8000ba6:	9801      	ldr	r0, [sp, #4]
 8000ba8:	4790      	blx	r2
 8000baa:	6872      	ldr	r2, [r6, #4]
 8000bac:	4552      	cmp	r2, sl
 8000bae:	d0ec      	beq.n	8000b8a <__call_exitprocs+0x72>
 8000bb0:	f8d7 6148 	ldr.w	r6, [r7, #328]	; 0x148
 8000bb4:	2e00      	cmp	r6, #0
 8000bb6:	d1bd      	bne.n	8000b34 <__call_exitprocs+0x1c>
 8000bb8:	e7ce      	b.n	8000b58 <__call_exitprocs+0x40>
 8000bba:	f8d4 0080 	ldr.w	r0, [r4, #128]	; 0x80
 8000bbe:	4790      	blx	r2
 8000bc0:	e7e0      	b.n	8000b84 <__call_exitprocs+0x6c>
 8000bc2:	bf00      	nop
 8000bc4:	080043c0 	.word	0x080043c0

08000bc8 <_malloc_trim_r>:
 8000bc8:	b5f8      	push	{r3, r4, r5, r6, r7, lr}
 8000bca:	4f24      	ldr	r7, [pc, #144]	; (8000c5c <_malloc_trim_r+0x94>)
 8000bcc:	460c      	mov	r4, r1
 8000bce:	4606      	mov	r6, r0
 8000bd0:	f7ff ff1a 	bl	8000a08 <__malloc_lock>
 8000bd4:	68ba      	ldr	r2, [r7, #8]
 8000bd6:	6855      	ldr	r5, [r2, #4]
 8000bd8:	f5c4 637e 	rsb	r3, r4, #4064	; 0xfe0
 8000bdc:	330f      	adds	r3, #15
 8000bde:	f025 0503 	bic.w	r5, r5, #3
 8000be2:	442b      	add	r3, r5
 8000be4:	f423 637f 	bic.w	r3, r3, #4080	; 0xff0
 8000be8:	f023 030f 	bic.w	r3, r3, #15
 8000bec:	f5a3 5480 	sub.w	r4, r3, #4096	; 0x1000
 8000bf0:	f5b4 5f80 	cmp.w	r4, #4096	; 0x1000
 8000bf4:	db07      	blt.n	8000c06 <_malloc_trim_r+0x3e>
 8000bf6:	2100      	movs	r1, #0
 8000bf8:	4630      	mov	r0, r6
 8000bfa:	f7ff ff2d 	bl	8000a58 <_sbrk_r>
 8000bfe:	68bb      	ldr	r3, [r7, #8]
 8000c00:	442b      	add	r3, r5
 8000c02:	4298      	cmp	r0, r3
 8000c04:	d004      	beq.n	8000c10 <_malloc_trim_r+0x48>
 8000c06:	4630      	mov	r0, r6
 8000c08:	f7ff ff00 	bl	8000a0c <__malloc_unlock>
 8000c0c:	2000      	movs	r0, #0
 8000c0e:	bdf8      	pop	{r3, r4, r5, r6, r7, pc}
 8000c10:	4261      	negs	r1, r4
 8000c12:	4630      	mov	r0, r6
 8000c14:	f7ff ff20 	bl	8000a58 <_sbrk_r>
 8000c18:	3001      	adds	r0, #1
 8000c1a:	d00d      	beq.n	8000c38 <_malloc_trim_r+0x70>
 8000c1c:	4a10      	ldr	r2, [pc, #64]	; (8000c60 <_malloc_trim_r+0x98>)
 8000c1e:	68bb      	ldr	r3, [r7, #8]
 8000c20:	1b2d      	subs	r5, r5, r4
 8000c22:	f045 0501 	orr.w	r5, r5, #1
 8000c26:	605d      	str	r5, [r3, #4]
 8000c28:	6813      	ldr	r3, [r2, #0]
 8000c2a:	4630      	mov	r0, r6
 8000c2c:	1b1b      	subs	r3, r3, r4
 8000c2e:	6013      	str	r3, [r2, #0]
 8000c30:	f7ff feec 	bl	8000a0c <__malloc_unlock>
 8000c34:	2001      	movs	r0, #1
 8000c36:	bdf8      	pop	{r3, r4, r5, r6, r7, pc}
 8000c38:	2100      	movs	r1, #0
 8000c3a:	4630      	mov	r0, r6
 8000c3c:	f7ff ff0c 	bl	8000a58 <_sbrk_r>
 8000c40:	68ba      	ldr	r2, [r7, #8]
 8000c42:	1a83      	subs	r3, r0, r2
 8000c44:	2b0f      	cmp	r3, #15
 8000c46:	ddde      	ble.n	8000c06 <_malloc_trim_r+0x3e>
 8000c48:	f043 0301 	orr.w	r3, r3, #1
 8000c4c:	6053      	str	r3, [r2, #4]
 8000c4e:	4b05      	ldr	r3, [pc, #20]	; (8000c64 <_malloc_trim_r+0x9c>)
 8000c50:	4903      	ldr	r1, [pc, #12]	; (8000c60 <_malloc_trim_r+0x98>)
 8000c52:	681b      	ldr	r3, [r3, #0]
 8000c54:	1ac0      	subs	r0, r0, r3
 8000c56:	6008      	str	r0, [r1, #0]
 8000c58:	e7d5      	b.n	8000c06 <_malloc_trim_r+0x3e>
 8000c5a:	bf00      	nop
 8000c5c:	20000430 	.word	0x20000430
 8000c60:	200009c8 	.word	0x200009c8
 8000c64:	20000838 	.word	0x20000838

08000c68 <_free_r>:
 8000c68:	2900      	cmp	r1, #0
 8000c6a:	d061      	beq.n	8000d30 <_free_r+0xc8>
 8000c6c:	b5f8      	push	{r3, r4, r5, r6, r7, lr}
 8000c6e:	460c      	mov	r4, r1
 8000c70:	4606      	mov	r6, r0
 8000c72:	f7ff fec9 	bl	8000a08 <__malloc_lock>
 8000c76:	f854 2c04 	ldr.w	r2, [r4, #-4]
 8000c7a:	4f7b      	ldr	r7, [pc, #492]	; (8000e68 <_free_r+0x200>)
 8000c7c:	f1a4 0508 	sub.w	r5, r4, #8
 8000c80:	f022 0101 	bic.w	r1, r2, #1
 8000c84:	eb05 0c01 	add.w	ip, r5, r1
 8000c88:	68b8      	ldr	r0, [r7, #8]
 8000c8a:	f8dc 3004 	ldr.w	r3, [ip, #4]
 8000c8e:	4560      	cmp	r0, ip
 8000c90:	f023 0303 	bic.w	r3, r3, #3
 8000c94:	f000 808b 	beq.w	8000dae <_free_r+0x146>
 8000c98:	07d2      	lsls	r2, r2, #31
 8000c9a:	f8cc 3004 	str.w	r3, [ip, #4]
 8000c9e:	d432      	bmi.n	8000d06 <_free_r+0x9e>
 8000ca0:	f854 2c08 	ldr.w	r2, [r4, #-8]
 8000ca4:	1aad      	subs	r5, r5, r2
 8000ca6:	4411      	add	r1, r2
 8000ca8:	68aa      	ldr	r2, [r5, #8]
 8000caa:	f107 0008 	add.w	r0, r7, #8
 8000cae:	4282      	cmp	r2, r0
 8000cb0:	d06a      	beq.n	8000d88 <_free_r+0x120>
 8000cb2:	eb0c 0403 	add.w	r4, ip, r3
 8000cb6:	f8d4 e004 	ldr.w	lr, [r4, #4]
 8000cba:	68ec      	ldr	r4, [r5, #12]
 8000cbc:	60d4      	str	r4, [r2, #12]
 8000cbe:	f01e 0f01 	tst.w	lr, #1
 8000cc2:	60a2      	str	r2, [r4, #8]
 8000cc4:	f000 8097 	beq.w	8000df6 <_free_r+0x18e>
 8000cc8:	f041 0301 	orr.w	r3, r1, #1
 8000ccc:	606b      	str	r3, [r5, #4]
 8000cce:	f8cc 1000 	str.w	r1, [ip]
 8000cd2:	f5b1 7f00 	cmp.w	r1, #512	; 0x200
 8000cd6:	d235      	bcs.n	8000d44 <_free_r+0xdc>
 8000cd8:	687a      	ldr	r2, [r7, #4]
 8000cda:	08cb      	lsrs	r3, r1, #3
 8000cdc:	0948      	lsrs	r0, r1, #5
 8000cde:	2101      	movs	r1, #1
 8000ce0:	3301      	adds	r3, #1
 8000ce2:	4081      	lsls	r1, r0
 8000ce4:	4311      	orrs	r1, r2
 8000ce6:	6079      	str	r1, [r7, #4]
 8000ce8:	eb07 02c3 	add.w	r2, r7, r3, lsl #3
 8000cec:	f857 1033 	ldr.w	r1, [r7, r3, lsl #3]
 8000cf0:	3a08      	subs	r2, #8
 8000cf2:	e9c5 1202 	strd	r1, r2, [r5, #8]
 8000cf6:	f847 5033 	str.w	r5, [r7, r3, lsl #3]
 8000cfa:	60cd      	str	r5, [r1, #12]
 8000cfc:	4630      	mov	r0, r6
 8000cfe:	e8bd 40f8 	ldmia.w	sp!, {r3, r4, r5, r6, r7, lr}
 8000d02:	f7ff be83 	b.w	8000a0c <__malloc_unlock>
 8000d06:	eb0c 0203 	add.w	r2, ip, r3
 8000d0a:	6852      	ldr	r2, [r2, #4]
 8000d0c:	07d0      	lsls	r0, r2, #31
 8000d0e:	d410      	bmi.n	8000d32 <_free_r+0xca>
 8000d10:	4419      	add	r1, r3
 8000d12:	f107 0008 	add.w	r0, r7, #8
 8000d16:	f8dc 3008 	ldr.w	r3, [ip, #8]
 8000d1a:	4283      	cmp	r3, r0
 8000d1c:	d073      	beq.n	8000e06 <_free_r+0x19e>
 8000d1e:	f8dc 200c 	ldr.w	r2, [ip, #12]
 8000d22:	60da      	str	r2, [r3, #12]
 8000d24:	6093      	str	r3, [r2, #8]
 8000d26:	f041 0301 	orr.w	r3, r1, #1
 8000d2a:	606b      	str	r3, [r5, #4]
 8000d2c:	5069      	str	r1, [r5, r1]
 8000d2e:	e7d0      	b.n	8000cd2 <_free_r+0x6a>
 8000d30:	4770      	bx	lr
 8000d32:	f041 0301 	orr.w	r3, r1, #1
 8000d36:	f5b1 7f00 	cmp.w	r1, #512	; 0x200
 8000d3a:	f844 3c04 	str.w	r3, [r4, #-4]
 8000d3e:	f8cc 1000 	str.w	r1, [ip]
 8000d42:	d3c9      	bcc.n	8000cd8 <_free_r+0x70>
 8000d44:	f5b1 6f20 	cmp.w	r1, #2560	; 0xa00
 8000d48:	ea4f 2351 	mov.w	r3, r1, lsr #9
 8000d4c:	d248      	bcs.n	8000de0 <_free_r+0x178>
 8000d4e:	098b      	lsrs	r3, r1, #6
 8000d50:	f103 0039 	add.w	r0, r3, #57	; 0x39
 8000d54:	f103 0238 	add.w	r2, r3, #56	; 0x38
 8000d58:	00c3      	lsls	r3, r0, #3
 8000d5a:	18f8      	adds	r0, r7, r3
 8000d5c:	58fb      	ldr	r3, [r7, r3]
 8000d5e:	3808      	subs	r0, #8
 8000d60:	4298      	cmp	r0, r3
 8000d62:	d059      	beq.n	8000e18 <_free_r+0x1b0>
 8000d64:	685a      	ldr	r2, [r3, #4]
 8000d66:	f022 0203 	bic.w	r2, r2, #3
 8000d6a:	428a      	cmp	r2, r1
 8000d6c:	d902      	bls.n	8000d74 <_free_r+0x10c>
 8000d6e:	689b      	ldr	r3, [r3, #8]
 8000d70:	4298      	cmp	r0, r3
 8000d72:	d1f7      	bne.n	8000d64 <_free_r+0xfc>
 8000d74:	68d8      	ldr	r0, [r3, #12]
 8000d76:	e9c5 3002 	strd	r3, r0, [r5, #8]
 8000d7a:	6085      	str	r5, [r0, #8]
 8000d7c:	60dd      	str	r5, [r3, #12]
 8000d7e:	4630      	mov	r0, r6
 8000d80:	e8bd 40f8 	ldmia.w	sp!, {r3, r4, r5, r6, r7, lr}
 8000d84:	f7ff be42 	b.w	8000a0c <__malloc_unlock>
 8000d88:	eb0c 0203 	add.w	r2, ip, r3
 8000d8c:	6852      	ldr	r2, [r2, #4]
 8000d8e:	07d2      	lsls	r2, r2, #31
 8000d90:	d463      	bmi.n	8000e5a <_free_r+0x1f2>
 8000d92:	440b      	add	r3, r1
 8000d94:	e9dc 1202 	ldrd	r1, r2, [ip, #8]
 8000d98:	60ca      	str	r2, [r1, #12]
 8000d9a:	6091      	str	r1, [r2, #8]
 8000d9c:	f043 0201 	orr.w	r2, r3, #1
 8000da0:	606a      	str	r2, [r5, #4]
 8000da2:	4630      	mov	r0, r6
 8000da4:	50eb      	str	r3, [r5, r3]
 8000da6:	e8bd 40f8 	ldmia.w	sp!, {r3, r4, r5, r6, r7, lr}
 8000daa:	f7ff be2f 	b.w	8000a0c <__malloc_unlock>
 8000dae:	440b      	add	r3, r1
 8000db0:	07d1      	lsls	r1, r2, #31
 8000db2:	d407      	bmi.n	8000dc4 <_free_r+0x15c>
 8000db4:	f854 2c08 	ldr.w	r2, [r4, #-8]
 8000db8:	1aad      	subs	r5, r5, r2
 8000dba:	4413      	add	r3, r2
 8000dbc:	e9d5 1202 	ldrd	r1, r2, [r5, #8]
 8000dc0:	60ca      	str	r2, [r1, #12]
 8000dc2:	6091      	str	r1, [r2, #8]
 8000dc4:	f043 0201 	orr.w	r2, r3, #1
 8000dc8:	606a      	str	r2, [r5, #4]
 8000dca:	4a28      	ldr	r2, [pc, #160]	; (8000e6c <_free_r+0x204>)
 8000dcc:	60bd      	str	r5, [r7, #8]
 8000dce:	6812      	ldr	r2, [r2, #0]
 8000dd0:	429a      	cmp	r2, r3
 8000dd2:	d893      	bhi.n	8000cfc <_free_r+0x94>
 8000dd4:	4b26      	ldr	r3, [pc, #152]	; (8000e70 <_free_r+0x208>)
 8000dd6:	4630      	mov	r0, r6
 8000dd8:	6819      	ldr	r1, [r3, #0]
 8000dda:	f7ff fef5 	bl	8000bc8 <_malloc_trim_r>
 8000dde:	e78d      	b.n	8000cfc <_free_r+0x94>
 8000de0:	2b14      	cmp	r3, #20
 8000de2:	d90a      	bls.n	8000dfa <_free_r+0x192>
 8000de4:	2b54      	cmp	r3, #84	; 0x54
 8000de6:	d81f      	bhi.n	8000e28 <_free_r+0x1c0>
 8000de8:	0b0b      	lsrs	r3, r1, #12
 8000dea:	f103 006f 	add.w	r0, r3, #111	; 0x6f
 8000dee:	f103 026e 	add.w	r2, r3, #110	; 0x6e
 8000df2:	00c3      	lsls	r3, r0, #3
 8000df4:	e7b1      	b.n	8000d5a <_free_r+0xf2>
 8000df6:	4419      	add	r1, r3
 8000df8:	e78d      	b.n	8000d16 <_free_r+0xae>
 8000dfa:	f103 005c 	add.w	r0, r3, #92	; 0x5c
 8000dfe:	f103 025b 	add.w	r2, r3, #91	; 0x5b
 8000e02:	00c3      	lsls	r3, r0, #3
 8000e04:	e7a9      	b.n	8000d5a <_free_r+0xf2>
 8000e06:	f041 0301 	orr.w	r3, r1, #1
 8000e0a:	e9c7 5504 	strd	r5, r5, [r7, #16]
 8000e0e:	e9c5 0002 	strd	r0, r0, [r5, #8]
 8000e12:	606b      	str	r3, [r5, #4]
 8000e14:	5069      	str	r1, [r5, r1]
 8000e16:	e771      	b.n	8000cfc <_free_r+0x94>
 8000e18:	6879      	ldr	r1, [r7, #4]
 8000e1a:	1092      	asrs	r2, r2, #2
 8000e1c:	2401      	movs	r4, #1
 8000e1e:	fa04 f202 	lsl.w	r2, r4, r2
 8000e22:	430a      	orrs	r2, r1
 8000e24:	607a      	str	r2, [r7, #4]
 8000e26:	e7a6      	b.n	8000d76 <_free_r+0x10e>
 8000e28:	f5b3 7faa 	cmp.w	r3, #340	; 0x154
 8000e2c:	d806      	bhi.n	8000e3c <_free_r+0x1d4>
 8000e2e:	0bcb      	lsrs	r3, r1, #15
 8000e30:	f103 0078 	add.w	r0, r3, #120	; 0x78
 8000e34:	f103 0277 	add.w	r2, r3, #119	; 0x77
 8000e38:	00c3      	lsls	r3, r0, #3
 8000e3a:	e78e      	b.n	8000d5a <_free_r+0xf2>
 8000e3c:	f240 5254 	movw	r2, #1364	; 0x554
 8000e40:	4293      	cmp	r3, r2
 8000e42:	d806      	bhi.n	8000e52 <_free_r+0x1ea>
 8000e44:	0c8b      	lsrs	r3, r1, #18
 8000e46:	f103 007d 	add.w	r0, r3, #125	; 0x7d
 8000e4a:	f103 027c 	add.w	r2, r3, #124	; 0x7c
 8000e4e:	00c3      	lsls	r3, r0, #3
 8000e50:	e783      	b.n	8000d5a <_free_r+0xf2>
 8000e52:	f44f 737e 	mov.w	r3, #1016	; 0x3f8
 8000e56:	227e      	movs	r2, #126	; 0x7e
 8000e58:	e77f      	b.n	8000d5a <_free_r+0xf2>
 8000e5a:	f041 0301 	orr.w	r3, r1, #1
 8000e5e:	606b      	str	r3, [r5, #4]
 8000e60:	f8cc 1000 	str.w	r1, [ip]
 8000e64:	e74a      	b.n	8000cfc <_free_r+0x94>
 8000e66:	bf00      	nop
 8000e68:	20000430 	.word	0x20000430
 8000e6c:	2000083c 	.word	0x2000083c
 8000e70:	200009c4 	.word	0x200009c4

08000e74 <_gettimeofday_r>:
 8000e74:	b570      	push	{r4, r5, r6, lr}
 8000e76:	460c      	mov	r4, r1
 8000e78:	4d08      	ldr	r5, [pc, #32]	; (8000e9c <_gettimeofday_r+0x28>)
 8000e7a:	4603      	mov	r3, r0
 8000e7c:	2600      	movs	r6, #0
 8000e7e:	4620      	mov	r0, r4
 8000e80:	4611      	mov	r1, r2
 8000e82:	461c      	mov	r4, r3
 8000e84:	602e      	str	r6, [r5, #0]
 8000e86:	f000 f80b 	bl	8000ea0 <_gettimeofday>
 8000e8a:	1c43      	adds	r3, r0, #1
 8000e8c:	d000      	beq.n	8000e90 <_gettimeofday_r+0x1c>
 8000e8e:	bd70      	pop	{r4, r5, r6, pc}
 8000e90:	682b      	ldr	r3, [r5, #0]
 8000e92:	2b00      	cmp	r3, #0
 8000e94:	d0fb      	beq.n	8000e8e <_gettimeofday_r+0x1a>
 8000e96:	6023      	str	r3, [r4, #0]
 8000e98:	bd70      	pop	{r4, r5, r6, pc}
 8000e9a:	bf00      	nop
 8000e9c:	200009f8 	.word	0x200009f8

08000ea0 <_gettimeofday>:
 8000ea0:	4b02      	ldr	r3, [pc, #8]	; (8000eac <_gettimeofday+0xc>)
 8000ea2:	2258      	movs	r2, #88	; 0x58
 8000ea4:	601a      	str	r2, [r3, #0]
 8000ea6:	f04f 30ff 	mov.w	r0, #4294967295	; 0xffffffff
 8000eaa:	4770      	bx	lr
 8000eac:	200009f8 	.word	0x200009f8

08000eb0 <_exit>:
 8000eb0:	e7fe      	b.n	8000eb0 <_exit>
 8000eb2:	bf00      	nop

08000eb4 <cwntt>:
    -2939036, -2235985,  -420899, -2286327,   183443,  -976891,  1612842, -3545687,
    -554416,  3919660,   -48306, -1362209,  3937738,  1400424,  -846154,  1976782
};


void cwntt(int32_t a[N], unsigned layer) {
 8000eb4:	e92d 4ff0 	stmdb	sp!, {r4, r5, r6, r7, r8, r9, sl, fp, lr}
 8000eb8:	b085      	sub	sp, #20
    unsigned int len, start, j, k, l;
    int32_t zeta, t;

    k = 0;
    for (len = 128, l=1; len > 0; len >>= 1, l++) {
 8000eba:	2301      	movs	r3, #1
void cwntt(int32_t a[N], unsigned layer) {
 8000ebc:	9103      	str	r1, [sp, #12]
    for (len = 128, l=1; len > 0; len >>= 1, l++) {
 8000ebe:	9302      	str	r3, [sp, #8]
        if(l == layer) trigger_high();
 8000ec0:	e9dd 2302 	ldrd	r2, r3, [sp, #8]
 8000ec4:	4293      	cmp	r3, r2
void cwntt(int32_t a[N], unsigned layer) {
 8000ec6:	4607      	mov	r7, r0
 8000ec8:	f246 44f7 	movw	r4, #25847	; 0x64f7
    k = 0;
 8000ecc:	f04f 0800 	mov.w	r8, #0
    for (len = 128, l=1; len > 0; len >>= 1, l++) {
 8000ed0:	f04f 0980 	mov.w	r9, #128	; 0x80
        if(l == layer) trigger_high();
 8000ed4:	d051      	beq.n	8000f7a <cwntt+0xc6>
 8000ed6:	4b30      	ldr	r3, [pc, #192]	; (8000f98 <cwntt+0xe4>)
        for (start = 0; start < N; start = j + len) {
            zeta = zetas[++k];
 8000ed8:	2600      	movs	r6, #0
 8000eda:	f108 0a02 	add.w	sl, r8, #2
 8000ede:	eb03 038a 	add.w	r3, r3, sl, lsl #2
            for (j = start; j < start + len; ++j) {
 8000ee2:	eb09 0106 	add.w	r1, r9, r6
 8000ee6:	9301      	str	r3, [sp, #4]
 8000ee8:	42b1      	cmp	r1, r6
            zeta = zetas[++k];
 8000eea:	f108 0301 	add.w	r3, r8, #1
 8000eee:	9300      	str	r3, [sp, #0]
            for (j = start; j < start + len; ++j) {
 8000ef0:	d92b      	bls.n	8000f4a <cwntt+0x96>
 8000ef2:	f106 4380 	add.w	r3, r6, #1073741824	; 0x40000000
 8000ef6:	3b01      	subs	r3, #1
 8000ef8:	eb01 0609 	add.w	r6, r1, r9
 8000efc:	eb07 0a81 	add.w	sl, r7, r1, lsl #2
 8000f00:	eb07 0b83 	add.w	fp, r7, r3, lsl #2
 8000f04:	eb07 0586 	add.w	r5, r7, r6, lsl #2
                t = PQCLEAN_MLDSA44_CLEAN_montgomery_reduce((int64_t)zeta * a[j + len]);
 8000f08:	f8da 1000 	ldr.w	r1, [sl]
 8000f0c:	fb81 0104 	smull	r0, r1, r1, r4
 8000f10:	f000 fb96 	bl	8001640 <PQCLEAN_MLDSA44_CLEAN_montgomery_reduce>
                a[j + len] = a[j] - t;
 8000f14:	f85b 3f04 	ldr.w	r3, [fp, #4]!
 8000f18:	1a1b      	subs	r3, r3, r0
 8000f1a:	f84a 3b04 	str.w	r3, [sl], #4
                a[j] = a[j] + t;
 8000f1e:	f8db 3000 	ldr.w	r3, [fp]
            for (j = start; j < start + len; ++j) {
 8000f22:	4555      	cmp	r5, sl
                a[j] = a[j] + t;
 8000f24:	4418      	add	r0, r3
 8000f26:	f8cb 0000 	str.w	r0, [fp]
            for (j = start; j < start + len; ++j) {
 8000f2a:	d1ed      	bne.n	8000f08 <cwntt+0x54>
        for (start = 0; start < N; start = j + len) {
 8000f2c:	2eff      	cmp	r6, #255	; 0xff
 8000f2e:	d80e      	bhi.n	8000f4e <cwntt+0x9a>
            zeta = zetas[++k];
 8000f30:	9b01      	ldr	r3, [sp, #4]
 8000f32:	f8dd 8000 	ldr.w	r8, [sp]
 8000f36:	f853 4b04 	ldr.w	r4, [r3], #4
 8000f3a:	9301      	str	r3, [sp, #4]
            for (j = start; j < start + len; ++j) {
 8000f3c:	eb09 0106 	add.w	r1, r9, r6
            zeta = zetas[++k];
 8000f40:	f108 0301 	add.w	r3, r8, #1
            for (j = start; j < start + len; ++j) {
 8000f44:	42b1      	cmp	r1, r6
            zeta = zetas[++k];
 8000f46:	9300      	str	r3, [sp, #0]
            for (j = start; j < start + len; ++j) {
 8000f48:	d8d3      	bhi.n	8000ef2 <cwntt+0x3e>
 8000f4a:	460e      	mov	r6, r1
 8000f4c:	e7f0      	b.n	8000f30 <cwntt+0x7c>
            }
        }
        if(l==layer) trigger_low();
 8000f4e:	e9dd 2302 	ldrd	r2, r3, [sp, #8]
 8000f52:	4293      	cmp	r3, r2
 8000f54:	d014      	beq.n	8000f80 <cwntt+0xcc>
 8000f56:	4613      	mov	r3, r2
    for (len = 128, l=1; len > 0; len >>= 1, l++) {
 8000f58:	3301      	adds	r3, #1
 8000f5a:	2b09      	cmp	r3, #9
 8000f5c:	9302      	str	r3, [sp, #8]
 8000f5e:	ea4f 0959 	mov.w	r9, r9, lsr #1
 8000f62:	d016      	beq.n	8000f92 <cwntt+0xde>
            zeta = zetas[++k];
 8000f64:	f108 0302 	add.w	r3, r8, #2
 8000f68:	4a0b      	ldr	r2, [pc, #44]	; (8000f98 <cwntt+0xe4>)
 8000f6a:	f8dd 8000 	ldr.w	r8, [sp]
 8000f6e:	f852 4023 	ldr.w	r4, [r2, r3, lsl #2]
        if(l == layer) trigger_high();
 8000f72:	e9dd 2302 	ldrd	r2, r3, [sp, #8]
 8000f76:	4293      	cmp	r3, r2
 8000f78:	d1ad      	bne.n	8000ed6 <cwntt+0x22>
 8000f7a:	f002 f9c1 	bl	8003300 <trigger_high>
 8000f7e:	e7aa      	b.n	8000ed6 <cwntt+0x22>
        if(l==layer) trigger_low();
 8000f80:	f002 f9c6 	bl	8003310 <trigger_low>
    for (len = 128, l=1; len > 0; len >>= 1, l++) {
 8000f84:	9b03      	ldr	r3, [sp, #12]
 8000f86:	1c5a      	adds	r2, r3, #1
 8000f88:	2b08      	cmp	r3, #8
 8000f8a:	ea4f 0959 	mov.w	r9, r9, lsr #1
 8000f8e:	9202      	str	r2, [sp, #8]
 8000f90:	d1e8      	bne.n	8000f64 <cwntt+0xb0>
        
    }
}
 8000f92:	b005      	add	sp, #20
 8000f94:	e8bd 8ff0 	ldmia.w	sp!, {r4, r5, r6, r7, r8, r9, sl, fp, pc}
 8000f98:	08003f00 	.word	0x08003f00

08000f9c <challenge_fsntt>:
  }
}


uint8_t challenge_fsntt(uint8_t cmd, uint8_t scmd, uint8_t len, uint8_t *buf)
{
 8000f9c:	b570      	push	{r4, r5, r6, lr}

   poly cp;
    uint8_t sig[32];
    int i;
    
    srand((unsigned)time( NULL ) );
 8000f9e:	2000      	movs	r0, #0
{
 8000fa0:	f5ad 6d84 	sub.w	sp, sp, #1056	; 0x420
 8000fa4:	461e      	mov	r6, r3
    srand((unsigned)time( NULL ) );
 8000fa6:	f7ff fd69 	bl	8000a7c <time>
 8000faa:	f7ff fd31 	bl	8000a10 <srand>
    for(i=0;i<32;i++) sig[i] = rand()%256;
 8000fae:	f10d 34ff 	add.w	r4, sp, #4294967295	; 0xffffffff
 8000fb2:	f10d 051f 	add.w	r5, sp, #31
 8000fb6:	f7ff fd33 	bl	8000a20 <rand>
 8000fba:	4242      	negs	r2, r0
 8000fbc:	b2d2      	uxtb	r2, r2
 8000fbe:	b2c0      	uxtb	r0, r0
 8000fc0:	bf58      	it	pl
 8000fc2:	4250      	negpl	r0, r2
 8000fc4:	f804 0f01 	strb.w	r0, [r4, #1]!
 8000fc8:	42ac      	cmp	r4, r5
 8000fca:	d1f4      	bne.n	8000fb6 <challenge_fsntt+0x1a>

    PQCLEAN_MLDSA44_CLEAN_poly_challenge(&cp, sig); 
 8000fcc:	4669      	mov	r1, sp
 8000fce:	a808      	add	r0, sp, #32
 8000fd0:	f000 fac8 	bl	8001564 <PQCLEAN_MLDSA44_CLEAN_poly_challenge>
		n = n*256 + buf[7-i];
 8000fd4:	79f3      	ldrb	r3, [r6, #7]
 8000fd6:	79b2      	ldrb	r2, [r6, #6]
 8000fd8:	7971      	ldrb	r1, [r6, #5]
 8000fda:	eb02 2203 	add.w	r2, r2, r3, lsl #8
 8000fde:	eb01 2202 	add.w	r2, r1, r2, lsl #8
 8000fe2:	7931      	ldrb	r1, [r6, #4]
 8000fe4:	78f3      	ldrb	r3, [r6, #3]
 8000fe6:	eb01 2102 	add.w	r1, r1, r2, lsl #8
 8000fea:	eb03 2101 	add.w	r1, r3, r1, lsl #8
 8000fee:	78b3      	ldrb	r3, [r6, #2]
 8000ff0:	7872      	ldrb	r2, [r6, #1]
 8000ff2:	eb03 2301 	add.w	r3, r3, r1, lsl #8
 8000ff6:	eb02 2303 	add.w	r3, r2, r3, lsl #8
	n -= mask;
 8000ffa:	4915      	ldr	r1, [pc, #84]	; (8001050 <challenge_fsntt+0xb4>)
		n = n*256 + buf[7-i];
 8000ffc:	7832      	ldrb	r2, [r6, #0]
	n -= mask;
 8000ffe:	1852      	adds	r2, r2, r1
 8001000:	eb02 2203 	add.w	r2, r2, r3, lsl #8
	*r = (int32_t)n;
 8001004:	9208      	str	r2, [sp, #32]
		n = n*256 + buf[7-i];
 8001006:	7bf3      	ldrb	r3, [r6, #15]
 8001008:	7bb2      	ldrb	r2, [r6, #14]
 800100a:	eb02 2203 	add.w	r2, r2, r3, lsl #8
 800100e:	7b73      	ldrb	r3, [r6, #13]
 8001010:	eb03 2202 	add.w	r2, r3, r2, lsl #8
 8001014:	7b33      	ldrb	r3, [r6, #12]
 8001016:	eb03 2302 	add.w	r3, r3, r2, lsl #8
 800101a:	7af2      	ldrb	r2, [r6, #11]
 800101c:	eb02 2303 	add.w	r3, r2, r3, lsl #8
 8001020:	7ab2      	ldrb	r2, [r6, #10]
 8001022:	eb02 2203 	add.w	r2, r2, r3, lsl #8
 8001026:	7a73      	ldrb	r3, [r6, #9]
 8001028:	eb03 2202 	add.w	r2, r3, r2, lsl #8
 800102c:	7a33      	ldrb	r3, [r6, #8]
	n -= mask;
 800102e:	185b      	adds	r3, r3, r1
 8001030:	eb03 2302 	add.w	r3, r3, r2, lsl #8
    decode(buf+8, &cp.coeffs[128]);
    
    // trigger_high();
    // PQCLEAN_MLDSA44_CLEAN_poly_ntt(&cp);
    // trigger_low();
    cwntt(cp.coeffs, 1);
 8001034:	a808      	add	r0, sp, #32
 8001036:	2101      	movs	r1, #1
	*r = (int32_t)n;
 8001038:	9388      	str	r3, [sp, #544]	; 0x220
    cwntt(cp.coeffs, 1);
 800103a:	f7ff ff3b 	bl	8000eb4 <cwntt>
    
	simpleserial_put('r', 16, buf);
 800103e:	4632      	mov	r2, r6
 8001040:	2072      	movs	r0, #114	; 0x72
 8001042:	2110      	movs	r1, #16
 8001044:	f001 ffe2 	bl	800300c <simpleserial_put>
	return 0x00;
}
 8001048:	2000      	movs	r0, #0
 800104a:	f50d 6d84 	add.w	sp, sp, #1056	; 0x420
 800104e:	bd70      	pop	{r4, r5, r6, pc}
 8001050:	fc00fff6 	.word	0xfc00fff6

08001054 <challenge_secntt>:
uint8_t challenge_secntt(uint8_t cmd, uint8_t scmd, uint8_t len, uint8_t *buf)
{
 8001054:	b570      	push	{r4, r5, r6, lr}
    poly cp;
    int i;
    uint8_t sig[32];
    srand((unsigned)time( NULL ) );
 8001056:	2000      	movs	r0, #0
{
 8001058:	f5ad 6d84 	sub.w	sp, sp, #1056	; 0x420
 800105c:	461d      	mov	r5, r3
    srand((unsigned)time( NULL ) );
 800105e:	f7ff fd0d 	bl	8000a7c <time>
 8001062:	f7ff fcd5 	bl	8000a10 <srand>
    for(i=0;i<32;i++) sig[i] = rand()%256;
 8001066:	f10d 34ff 	add.w	r4, sp, #4294967295	; 0xffffffff
 800106a:	f10d 061f 	add.w	r6, sp, #31
 800106e:	f7ff fcd7 	bl	8000a20 <rand>
 8001072:	4242      	negs	r2, r0
 8001074:	b2d2      	uxtb	r2, r2
 8001076:	b2c0      	uxtb	r0, r0
 8001078:	bf58      	it	pl
 800107a:	4250      	negpl	r0, r2
 800107c:	f804 0f01 	strb.w	r0, [r4, #1]!
 8001080:	42a6      	cmp	r6, r4
 8001082:	d1f4      	bne.n	800106e <challenge_secntt+0x1a>
    
    PQCLEAN_MLDSA44_CLEAN_poly_challenge(&cp, sig); 
 8001084:	4669      	mov	r1, sp
 8001086:	a808      	add	r0, sp, #32
 8001088:	f000 fa6c 	bl	8001564 <PQCLEAN_MLDSA44_CLEAN_poly_challenge>
		n = n*256 + buf[7-i];
 800108c:	79ea      	ldrb	r2, [r5, #7]
 800108e:	79ab      	ldrb	r3, [r5, #6]
 8001090:	7968      	ldrb	r0, [r5, #5]
 8001092:	78e9      	ldrb	r1, [r5, #3]
 8001094:	eb03 2302 	add.w	r3, r3, r2, lsl #8
 8001098:	eb00 2303 	add.w	r3, r0, r3, lsl #8
 800109c:	7928      	ldrb	r0, [r5, #4]
 800109e:	786a      	ldrb	r2, [r5, #1]
 80010a0:	eb00 2003 	add.w	r0, r0, r3, lsl #8
 80010a4:	eb01 2000 	add.w	r0, r1, r0, lsl #8
 80010a8:	78a9      	ldrb	r1, [r5, #2]
	n -= mask;
 80010aa:	4b2f      	ldr	r3, [pc, #188]	; (8001168 <challenge_secntt+0x114>)
		n = n*256 + buf[7-i];
 80010ac:	eb01 2100 	add.w	r1, r1, r0, lsl #8
 80010b0:	eb02 2101 	add.w	r1, r2, r1, lsl #8
 80010b4:	782a      	ldrb	r2, [r5, #0]
 80010b6:	7be8      	ldrb	r0, [r5, #15]
	n -= mask;
 80010b8:	18d2      	adds	r2, r2, r3
 80010ba:	eb02 2201 	add.w	r2, r2, r1, lsl #8
		n = n*256 + buf[7-i];
 80010be:	7ba9      	ldrb	r1, [r5, #14]
	*r = (int32_t)n;
 80010c0:	9208      	str	r2, [sp, #32]
		n = n*256 + buf[7-i];
 80010c2:	7b6a      	ldrb	r2, [r5, #13]
 80010c4:	eb01 2100 	add.w	r1, r1, r0, lsl #8
 80010c8:	eb02 2101 	add.w	r1, r2, r1, lsl #8
 80010cc:	7b2a      	ldrb	r2, [r5, #12]
 80010ce:	7de8      	ldrb	r0, [r5, #23]
 80010d0:	eb02 2201 	add.w	r2, r2, r1, lsl #8
 80010d4:	7ae9      	ldrb	r1, [r5, #11]
 80010d6:	eb01 2202 	add.w	r2, r1, r2, lsl #8
 80010da:	7aa9      	ldrb	r1, [r5, #10]
 80010dc:	eb01 2102 	add.w	r1, r1, r2, lsl #8
 80010e0:	7a6a      	ldrb	r2, [r5, #9]
 80010e2:	eb02 2101 	add.w	r1, r2, r1, lsl #8
 80010e6:	7a2a      	ldrb	r2, [r5, #8]
	n -= mask;
 80010e8:	18d2      	adds	r2, r2, r3
 80010ea:	eb02 2201 	add.w	r2, r2, r1, lsl #8
		n = n*256 + buf[7-i];
 80010ee:	7da9      	ldrb	r1, [r5, #22]
	*r = (int32_t)n;
 80010f0:	9288      	str	r2, [sp, #544]	; 0x220
		n = n*256 + buf[7-i];
 80010f2:	7d6a      	ldrb	r2, [r5, #21]
 80010f4:	eb01 2100 	add.w	r1, r1, r0, lsl #8
 80010f8:	eb02 2101 	add.w	r1, r2, r1, lsl #8
 80010fc:	7d2a      	ldrb	r2, [r5, #20]
 80010fe:	7fe8      	ldrb	r0, [r5, #31]
 8001100:	eb02 2201 	add.w	r2, r2, r1, lsl #8
 8001104:	7ce9      	ldrb	r1, [r5, #19]
 8001106:	eb01 2202 	add.w	r2, r1, r2, lsl #8
 800110a:	7ca9      	ldrb	r1, [r5, #18]
 800110c:	eb01 2102 	add.w	r1, r1, r2, lsl #8
 8001110:	7c6a      	ldrb	r2, [r5, #17]
 8001112:	eb02 2101 	add.w	r1, r2, r1, lsl #8
 8001116:	7c2a      	ldrb	r2, [r5, #16]
	n -= mask;
 8001118:	18d2      	adds	r2, r2, r3
 800111a:	eb02 2201 	add.w	r2, r2, r1, lsl #8
		n = n*256 + buf[7-i];
 800111e:	7fa9      	ldrb	r1, [r5, #30]
	*r = (int32_t)n;
 8001120:	9248      	str	r2, [sp, #288]	; 0x120
		n = n*256 + buf[7-i];
 8001122:	eb01 2200 	add.w	r2, r1, r0, lsl #8
 8001126:	7f69      	ldrb	r1, [r5, #29]
 8001128:	eb01 2102 	add.w	r1, r1, r2, lsl #8
 800112c:	7f2a      	ldrb	r2, [r5, #28]
 800112e:	eb02 2101 	add.w	r1, r2, r1, lsl #8
 8001132:	7eea      	ldrb	r2, [r5, #27]
 8001134:	eb02 2201 	add.w	r2, r2, r1, lsl #8
 8001138:	7ea9      	ldrb	r1, [r5, #26]
 800113a:	eb01 2202 	add.w	r2, r1, r2, lsl #8
 800113e:	7e69      	ldrb	r1, [r5, #25]
 8001140:	eb01 2102 	add.w	r1, r1, r2, lsl #8
 8001144:	7e2a      	ldrb	r2, [r5, #24]
	n -= mask;
 8001146:	18d3      	adds	r3, r2, r3
 8001148:	eb03 2301 	add.w	r3, r3, r1, lsl #8

    
    // trigger_high();
    // PQCLEAN_MLDSA44_CLEAN_poly_ntt(&cp);
    // trigger_low();
     cwntt(cp.coeffs, 2);
 800114c:	a808      	add	r0, sp, #32
 800114e:	2102      	movs	r1, #2
	*r = (int32_t)n;
 8001150:	93c8      	str	r3, [sp, #800]	; 0x320
     cwntt(cp.coeffs, 2);
 8001152:	f7ff feaf 	bl	8000eb4 <cwntt>


	simpleserial_put('r', 32, buf);
 8001156:	462a      	mov	r2, r5
 8001158:	2072      	movs	r0, #114	; 0x72
 800115a:	2120      	movs	r1, #32
 800115c:	f001 ff56 	bl	800300c <simpleserial_put>
	return 0x00;
}
 8001160:	2000      	movs	r0, #0
 8001162:	f50d 6d84 	add.w	sp, sp, #1056	; 0x420
 8001166:	bd70      	pop	{r4, r5, r6, pc}
 8001168:	fc00fff6 	.word	0xfc00fff6

0800116c <challenge_trdntt>:

uint8_t challenge_trdntt(uint8_t cmd, uint8_t scmd, uint8_t len, uint8_t *buf)
{
 800116c:	b570      	push	{r4, r5, r6, lr}
    poly cp;
    int i;
    uint8_t sig[32];
    srand((unsigned)time( NULL ) );
 800116e:	2000      	movs	r0, #0
{
 8001170:	f5ad 6d84 	sub.w	sp, sp, #1056	; 0x420
 8001174:	461d      	mov	r5, r3
    srand((unsigned)time( NULL ) );
 8001176:	f7ff fc81 	bl	8000a7c <time>
 800117a:	f7ff fc49 	bl	8000a10 <srand>
    for(i=0;i<32;i++) sig[i] = rand()%256;
 800117e:	f10d 34ff 	add.w	r4, sp, #4294967295	; 0xffffffff
 8001182:	f10d 061f 	add.w	r6, sp, #31
 8001186:	f7ff fc4b 	bl	8000a20 <rand>
 800118a:	4242      	negs	r2, r0
 800118c:	b2d2      	uxtb	r2, r2
 800118e:	b2c0      	uxtb	r0, r0
 8001190:	bf58      	it	pl
 8001192:	4250      	negpl	r0, r2
 8001194:	f804 0f01 	strb.w	r0, [r4, #1]!
 8001198:	42a6      	cmp	r6, r4
 800119a:	d1f4      	bne.n	8001186 <challenge_trdntt+0x1a>
    
    PQCLEAN_MLDSA44_CLEAN_poly_challenge(&cp, sig); 
 800119c:	4669      	mov	r1, sp
 800119e:	a808      	add	r0, sp, #32
 80011a0:	f000 f9e0 	bl	8001564 <PQCLEAN_MLDSA44_CLEAN_poly_challenge>
		n = n*256 + buf[7-i];
 80011a4:	79ea      	ldrb	r2, [r5, #7]
 80011a6:	79ab      	ldrb	r3, [r5, #6]
 80011a8:	7968      	ldrb	r0, [r5, #5]
 80011aa:	78e9      	ldrb	r1, [r5, #3]
 80011ac:	eb03 2302 	add.w	r3, r3, r2, lsl #8
 80011b0:	eb00 2303 	add.w	r3, r0, r3, lsl #8
 80011b4:	7928      	ldrb	r0, [r5, #4]
 80011b6:	786a      	ldrb	r2, [r5, #1]
 80011b8:	eb00 2003 	add.w	r0, r0, r3, lsl #8
 80011bc:	eb01 2000 	add.w	r0, r1, r0, lsl #8
 80011c0:	78a9      	ldrb	r1, [r5, #2]
	n -= mask;
 80011c2:	4b6f      	ldr	r3, [pc, #444]	; (8001380 <challenge_trdntt+0x214>)
		n = n*256 + buf[7-i];
 80011c4:	eb01 2100 	add.w	r1, r1, r0, lsl #8
 80011c8:	eb02 2101 	add.w	r1, r2, r1, lsl #8
 80011cc:	782a      	ldrb	r2, [r5, #0]
 80011ce:	7be8      	ldrb	r0, [r5, #15]
	n -= mask;
 80011d0:	18d2      	adds	r2, r2, r3
 80011d2:	eb02 2201 	add.w	r2, r2, r1, lsl #8
		n = n*256 + buf[7-i];
 80011d6:	7ba9      	ldrb	r1, [r5, #14]
	*r = (int32_t)n;
 80011d8:	9208      	str	r2, [sp, #32]
		n = n*256 + buf[7-i];
 80011da:	7b6a      	ldrb	r2, [r5, #13]
 80011dc:	eb01 2100 	add.w	r1, r1, r0, lsl #8
 80011e0:	eb02 2101 	add.w	r1, r2, r1, lsl #8
 80011e4:	7b2a      	ldrb	r2, [r5, #12]
 80011e6:	7de8      	ldrb	r0, [r5, #23]
 80011e8:	eb02 2201 	add.w	r2, r2, r1, lsl #8
 80011ec:	7ae9      	ldrb	r1, [r5, #11]
 80011ee:	eb01 2202 	add.w	r2, r1, r2, lsl #8
 80011f2:	7aa9      	ldrb	r1, [r5, #10]
 80011f4:	eb01 2102 	add.w	r1, r1, r2, lsl #8
 80011f8:	7a6a      	ldrb	r2, [r5, #9]
 80011fa:	eb02 2101 	add.w	r1, r2, r1, lsl #8
 80011fe:	7a2a      	ldrb	r2, [r5, #8]
	n -= mask;
 8001200:	18d2      	adds	r2, r2, r3
 8001202:	eb02 2201 	add.w	r2, r2, r1, lsl #8
		n = n*256 + buf[7-i];
 8001206:	7da9      	ldrb	r1, [r5, #22]
	*r = (int32_t)n;
 8001208:	9288      	str	r2, [sp, #544]	; 0x220
		n = n*256 + buf[7-i];
 800120a:	7d6a      	ldrb	r2, [r5, #21]
 800120c:	eb01 2100 	add.w	r1, r1, r0, lsl #8
 8001210:	eb02 2101 	add.w	r1, r2, r1, lsl #8
 8001214:	7d2a      	ldrb	r2, [r5, #20]
 8001216:	7fe8      	ldrb	r0, [r5, #31]
 8001218:	eb02 2201 	add.w	r2, r2, r1, lsl #8
 800121c:	7ce9      	ldrb	r1, [r5, #19]
 800121e:	eb01 2202 	add.w	r2, r1, r2, lsl #8
 8001222:	7ca9      	ldrb	r1, [r5, #18]
 8001224:	eb01 2102 	add.w	r1, r1, r2, lsl #8
 8001228:	7c6a      	ldrb	r2, [r5, #17]
 800122a:	eb02 2101 	add.w	r1, r2, r1, lsl #8
 800122e:	7c2a      	ldrb	r2, [r5, #16]
	n -= mask;
 8001230:	18d2      	adds	r2, r2, r3
 8001232:	eb02 2201 	add.w	r2, r2, r1, lsl #8
		n = n*256 + buf[7-i];
 8001236:	7fa9      	ldrb	r1, [r5, #30]
	*r = (int32_t)n;
 8001238:	9248      	str	r2, [sp, #288]	; 0x120
		n = n*256 + buf[7-i];
 800123a:	7f6a      	ldrb	r2, [r5, #29]
 800123c:	eb01 2100 	add.w	r1, r1, r0, lsl #8
 8001240:	eb02 2101 	add.w	r1, r2, r1, lsl #8
 8001244:	7f2a      	ldrb	r2, [r5, #28]
 8001246:	eb02 2201 	add.w	r2, r2, r1, lsl #8
 800124a:	7ee9      	ldrb	r1, [r5, #27]
 800124c:	eb01 2202 	add.w	r2, r1, r2, lsl #8
 8001250:	7ea9      	ldrb	r1, [r5, #26]
 8001252:	f895 0027 	ldrb.w	r0, [r5, #39]	; 0x27
 8001256:	eb01 2102 	add.w	r1, r1, r2, lsl #8
 800125a:	7e6a      	ldrb	r2, [r5, #25]
 800125c:	eb02 2101 	add.w	r1, r2, r1, lsl #8
 8001260:	7e2a      	ldrb	r2, [r5, #24]
	n -= mask;
 8001262:	18d2      	adds	r2, r2, r3
 8001264:	eb02 2201 	add.w	r2, r2, r1, lsl #8
		n = n*256 + buf[7-i];
 8001268:	f895 1026 	ldrb.w	r1, [r5, #38]	; 0x26
	*r = (int32_t)n;
 800126c:	92c8      	str	r2, [sp, #800]	; 0x320
		n = n*256 + buf[7-i];
 800126e:	f895 2025 	ldrb.w	r2, [r5, #37]	; 0x25
 8001272:	eb01 2100 	add.w	r1, r1, r0, lsl #8
 8001276:	eb02 2101 	add.w	r1, r2, r1, lsl #8
 800127a:	f895 2024 	ldrb.w	r2, [r5, #36]	; 0x24
 800127e:	f895 002f 	ldrb.w	r0, [r5, #47]	; 0x2f
 8001282:	eb02 2201 	add.w	r2, r2, r1, lsl #8
 8001286:	f895 1023 	ldrb.w	r1, [r5, #35]	; 0x23
 800128a:	eb01 2202 	add.w	r2, r1, r2, lsl #8
 800128e:	f895 1022 	ldrb.w	r1, [r5, #34]	; 0x22
 8001292:	eb01 2102 	add.w	r1, r1, r2, lsl #8
 8001296:	f895 2021 	ldrb.w	r2, [r5, #33]	; 0x21
 800129a:	eb02 2101 	add.w	r1, r2, r1, lsl #8
 800129e:	f895 2020 	ldrb.w	r2, [r5, #32]
	n -= mask;
 80012a2:	18d2      	adds	r2, r2, r3
 80012a4:	eb02 2201 	add.w	r2, r2, r1, lsl #8
		n = n*256 + buf[7-i];
 80012a8:	f895 102e 	ldrb.w	r1, [r5, #46]	; 0x2e
	*r = (int32_t)n;
 80012ac:	9228      	str	r2, [sp, #160]	; 0xa0
		n = n*256 + buf[7-i];
 80012ae:	f895 202d 	ldrb.w	r2, [r5, #45]	; 0x2d
 80012b2:	eb01 2100 	add.w	r1, r1, r0, lsl #8
 80012b6:	eb02 2101 	add.w	r1, r2, r1, lsl #8
 80012ba:	f895 202c 	ldrb.w	r2, [r5, #44]	; 0x2c
 80012be:	f895 0037 	ldrb.w	r0, [r5, #55]	; 0x37
 80012c2:	eb02 2201 	add.w	r2, r2, r1, lsl #8
 80012c6:	f895 102b 	ldrb.w	r1, [r5, #43]	; 0x2b
 80012ca:	eb01 2202 	add.w	r2, r1, r2, lsl #8
 80012ce:	f895 102a 	ldrb.w	r1, [r5, #42]	; 0x2a
 80012d2:	eb01 2102 	add.w	r1, r1, r2, lsl #8
 80012d6:	f895 2029 	ldrb.w	r2, [r5, #41]	; 0x29
 80012da:	eb02 2101 	add.w	r1, r2, r1, lsl #8
 80012de:	f895 2028 	ldrb.w	r2, [r5, #40]	; 0x28
	n -= mask;
 80012e2:	18d2      	adds	r2, r2, r3
 80012e4:	eb02 2201 	add.w	r2, r2, r1, lsl #8
		n = n*256 + buf[7-i];
 80012e8:	f895 1036 	ldrb.w	r1, [r5, #54]	; 0x36
	*r = (int32_t)n;
 80012ec:	92a8      	str	r2, [sp, #672]	; 0x2a0
		n = n*256 + buf[7-i];
 80012ee:	f895 2035 	ldrb.w	r2, [r5, #53]	; 0x35
 80012f2:	eb01 2100 	add.w	r1, r1, r0, lsl #8
 80012f6:	eb02 2101 	add.w	r1, r2, r1, lsl #8
 80012fa:	f895 2034 	ldrb.w	r2, [r5, #52]	; 0x34
 80012fe:	f895 003f 	ldrb.w	r0, [r5, #63]	; 0x3f
 8001302:	eb02 2201 	add.w	r2, r2, r1, lsl #8
 8001306:	f895 1033 	ldrb.w	r1, [r5, #51]	; 0x33
 800130a:	eb01 2202 	add.w	r2, r1, r2, lsl #8
 800130e:	f895 1032 	ldrb.w	r1, [r5, #50]	; 0x32
 8001312:	eb01 2102 	add.w	r1, r1, r2, lsl #8
 8001316:	f895 2031 	ldrb.w	r2, [r5, #49]	; 0x31
 800131a:	eb02 2101 	add.w	r1, r2, r1, lsl #8
 800131e:	f895 2030 	ldrb.w	r2, [r5, #48]	; 0x30
	n -= mask;
 8001322:	18d2      	adds	r2, r2, r3
 8001324:	eb02 2201 	add.w	r2, r2, r1, lsl #8
	*r = (int32_t)n;
 8001328:	9268      	str	r2, [sp, #416]	; 0x1a0
		n = n*256 + buf[7-i];
 800132a:	f895 103e 	ldrb.w	r1, [r5, #62]	; 0x3e
 800132e:	eb01 2200 	add.w	r2, r1, r0, lsl #8
 8001332:	f895 103d 	ldrb.w	r1, [r5, #61]	; 0x3d
 8001336:	eb01 2102 	add.w	r1, r1, r2, lsl #8
 800133a:	f895 203c 	ldrb.w	r2, [r5, #60]	; 0x3c
 800133e:	eb02 2101 	add.w	r1, r2, r1, lsl #8
 8001342:	f895 203b 	ldrb.w	r2, [r5, #59]	; 0x3b
 8001346:	eb02 2201 	add.w	r2, r2, r1, lsl #8
 800134a:	f895 103a 	ldrb.w	r1, [r5, #58]	; 0x3a
 800134e:	eb01 2202 	add.w	r2, r1, r2, lsl #8
 8001352:	f895 1039 	ldrb.w	r1, [r5, #57]	; 0x39
 8001356:	eb01 2102 	add.w	r1, r1, r2, lsl #8
 800135a:	f895 2038 	ldrb.w	r2, [r5, #56]	; 0x38
	n -= mask;
 800135e:	18d3      	adds	r3, r2, r3
 8001360:	eb03 2301 	add.w	r3, r3, r1, lsl #8

    
    // trigger_high();
    // PQCLEAN_MLDSA44_CLEAN_poly_ntt(&cp);
    // trigger_low();
    cwntt(cp.coeffs, 3);
 8001364:	a808      	add	r0, sp, #32
 8001366:	2103      	movs	r1, #3
	*r = (int32_t)n;
 8001368:	93e8      	str	r3, [sp, #928]	; 0x3a0
    cwntt(cp.coeffs, 3);
 800136a:	f7ff fda3 	bl	8000eb4 <cwntt>

	simpleserial_put('r', 64, buf);
 800136e:	462a      	mov	r2, r5
 8001370:	2072      	movs	r0, #114	; 0x72
 8001372:	2140      	movs	r1, #64	; 0x40
 8001374:	f001 fe4a 	bl	800300c <simpleserial_put>
	return 0x00;
}
 8001378:	2000      	movs	r0, #0
 800137a:	f50d 6d84 	add.w	sp, sp, #1056	; 0x420
 800137e:	bd70      	pop	{r4, r5, r6, pc}
 8001380:	fc00fff6 	.word	0xfc00fff6

08001384 <decodec>:
    for(int i=0;i<64;i++){
 8001384:	1e4a      	subs	r2, r1, #1
 8001386:	f500 6c80 	add.w	ip, r0, #1024	; 0x400
void decodec(int32_t c[N], uint8_t *buf){
 800138a:	4603      	mov	r3, r0
        c[4*i] = buf[i] & 0x3;
 800138c:	f812 1f01 	ldrb.w	r1, [r2, #1]!
    for(int i=0;i<64;i++){
 8001390:	3310      	adds	r3, #16
        c[4*i] = buf[i] & 0x3;
 8001392:	f001 0103 	and.w	r1, r1, #3
 8001396:	f843 1c10 	str.w	r1, [r3, #-16]
        c[4*i+1] = (buf[i]>>2) & 0x3;
 800139a:	7811      	ldrb	r1, [r2, #0]
 800139c:	f3c1 0181 	ubfx	r1, r1, #2, #2
 80013a0:	f843 1c0c 	str.w	r1, [r3, #-12]
        c[4*i+2] = (buf[i]>>4) & 0x3;
 80013a4:	7811      	ldrb	r1, [r2, #0]
 80013a6:	f3c1 1101 	ubfx	r1, r1, #4, #2
 80013aa:	f843 1c08 	str.w	r1, [r3, #-8]
        c[4*i+3] = (buf[i]>>6) & 0x3;
 80013ae:	7811      	ldrb	r1, [r2, #0]
    for(int i=0;i<64;i++){
 80013b0:	4563      	cmp	r3, ip
        c[4*i+3] = (buf[i]>>6) & 0x3;
 80013b2:	ea4f 1191 	mov.w	r1, r1, lsr #6
 80013b6:	f843 1c04 	str.w	r1, [r3, #-4]
    for(int i=0;i<64;i++){
 80013ba:	d1e7      	bne.n	800138c <decodec+0x8>
 80013bc:	1f03      	subs	r3, r0, #4
 80013be:	f500 717f 	add.w	r1, r0, #1020	; 0x3fc
    for(int i=0;i<N;i++) c[i]=c[i]-1;
 80013c2:	f853 2f04 	ldr.w	r2, [r3, #4]!
 80013c6:	3a01      	subs	r2, #1
 80013c8:	4299      	cmp	r1, r3
 80013ca:	601a      	str	r2, [r3, #0]
 80013cc:	d1f9      	bne.n	80013c2 <decodec+0x3e>
} 
 80013ce:	4770      	bx	lr

080013d0 <challenge_back>:

uint8_t challenge_back(uint8_t cmd, uint8_t scmd, uint8_t len, uint8_t *buf)
{
 80013d0:	b530      	push	{r4, r5, lr}
 80013d2:	f2ad 4d04 	subw	sp, sp, #1028	; 0x404
    // srand((unsigned)time( NULL ) );
    // for(i=0;i<32;i++) sig[i] = rand()%256;
    
    // PQCLEAN_MLDSA44_CLEAN_poly_challenge(&cp, sig); 

    decodec(cp.coeffs, buf);
 80013d6:	4619      	mov	r1, r3
 80013d8:	4668      	mov	r0, sp
{
 80013da:	461d      	mov	r5, r3
    int i, cnt=0;
 80013dc:	2400      	movs	r4, #0
    decodec(cp.coeffs, buf);
 80013de:	f7ff ffd1 	bl	8001384 <decodec>
    for(i=0;i<N;i++) if(cp.coeffs[i]==-1 || cp.coeffs[i]==1) cnt++;
 80013e2:	f1ad 0104 	sub.w	r1, sp, #4
 80013e6:	f50d 7c7f 	add.w	ip, sp, #1020	; 0x3fc
 80013ea:	e003      	b.n	80013f4 <challenge_back+0x24>
 80013ec:	2801      	cmp	r0, #1
 80013ee:	d005      	beq.n	80013fc <challenge_back+0x2c>
 80013f0:	4561      	cmp	r1, ip
 80013f2:	d007      	beq.n	8001404 <challenge_back+0x34>
 80013f4:	f851 0f04 	ldr.w	r0, [r1, #4]!
 80013f8:	1c43      	adds	r3, r0, #1
 80013fa:	d1f7      	bne.n	80013ec <challenge_back+0x1c>
 80013fc:	4561      	cmp	r1, ip
 80013fe:	f104 0401 	add.w	r4, r4, #1
 8001402:	d1f7      	bne.n	80013f4 <challenge_back+0x24>

    
    cwntt(cp.coeffs, 8);
 8001404:	4668      	mov	r0, sp
 8001406:	2108      	movs	r1, #8
 8001408:	f7ff fd54 	bl	8000eb4 <cwntt>
	n += mask;
 800140c:	4b40      	ldr	r3, [pc, #256]	; (8001510 <challenge_back+0x140>)
 800140e:	9800      	ldr	r0, [sp, #0]
 8001410:	4423      	add	r3, r4
		buf[i] = n % 256;
 8001412:	4259      	negs	r1, r3
 8001414:	b2c9      	uxtb	r1, r1
 8001416:	b2da      	uxtb	r2, r3
 8001418:	bf58      	it	pl
 800141a:	424a      	negpl	r2, r1
		n /= 256;
 800141c:	2b00      	cmp	r3, #0
 800141e:	bfb8      	it	lt
 8001420:	33ff      	addlt	r3, #255	; 0xff
 8001422:	121b      	asrs	r3, r3, #8
		buf[i] = n % 256;
 8001424:	4259      	negs	r1, r3
 8001426:	b2c9      	uxtb	r1, r1
 8001428:	702a      	strb	r2, [r5, #0]
 800142a:	b2da      	uxtb	r2, r3
 800142c:	bf58      	it	pl
 800142e:	424a      	negpl	r2, r1
		n /= 256;
 8001430:	2b00      	cmp	r3, #0
 8001432:	bfb8      	it	lt
 8001434:	33ff      	addlt	r3, #255	; 0xff
 8001436:	121b      	asrs	r3, r3, #8
		buf[i] = n % 256;
 8001438:	4259      	negs	r1, r3
 800143a:	b2c9      	uxtb	r1, r1
 800143c:	706a      	strb	r2, [r5, #1]
 800143e:	b2da      	uxtb	r2, r3
 8001440:	bf58      	it	pl
 8001442:	424a      	negpl	r2, r1
 8001444:	70aa      	strb	r2, [r5, #2]
		n /= 256;
 8001446:	1e1a      	subs	r2, r3, #0
	n += mask;
 8001448:	4b31      	ldr	r3, [pc, #196]	; (8001510 <challenge_back+0x140>)
		buf[i] = n % 256;
 800144a:	f04f 0100 	mov.w	r1, #0
	n += mask;
 800144e:	4403      	add	r3, r0
		buf[i] = n % 256;
 8001450:	7129      	strb	r1, [r5, #4]
 8001452:	7169      	strb	r1, [r5, #5]
 8001454:	71a9      	strb	r1, [r5, #6]
 8001456:	71e9      	strb	r1, [r5, #7]
		n /= 256;
 8001458:	bfb8      	it	lt
 800145a:	32ff      	addlt	r2, #255	; 0xff
		buf[i] = n % 256;
 800145c:	1ac9      	subs	r1, r1, r3
		n /= 256;
 800145e:	ea4f 2222 	mov.w	r2, r2, asr #8
		buf[i] = n % 256;
 8001462:	b2c9      	uxtb	r1, r1
 8001464:	70ea      	strb	r2, [r5, #3]
 8001466:	b2da      	uxtb	r2, r3
 8001468:	bf58      	it	pl
 800146a:	424a      	negpl	r2, r1
		n /= 256;
 800146c:	2b00      	cmp	r3, #0
 800146e:	bfb8      	it	lt
 8001470:	33ff      	addlt	r3, #255	; 0xff
 8001472:	121b      	asrs	r3, r3, #8
		buf[i] = n % 256;
 8001474:	4259      	negs	r1, r3
 8001476:	b2c9      	uxtb	r1, r1
 8001478:	722a      	strb	r2, [r5, #8]
 800147a:	b2da      	uxtb	r2, r3
 800147c:	bf58      	it	pl
 800147e:	424a      	negpl	r2, r1
		n /= 256;
 8001480:	2b00      	cmp	r3, #0
 8001482:	bfb8      	it	lt
 8001484:	33ff      	addlt	r3, #255	; 0xff
 8001486:	121b      	asrs	r3, r3, #8
		buf[i] = n % 256;
 8001488:	4259      	negs	r1, r3
 800148a:	b2c9      	uxtb	r1, r1
	n += mask;
 800148c:	9801      	ldr	r0, [sp, #4]
		buf[i] = n % 256;
 800148e:	726a      	strb	r2, [r5, #9]
 8001490:	b2da      	uxtb	r2, r3
 8001492:	bf58      	it	pl
 8001494:	424a      	negpl	r2, r1
	n += mask;
 8001496:	491e      	ldr	r1, [pc, #120]	; (8001510 <challenge_back+0x140>)
		buf[i] = n % 256;
 8001498:	72aa      	strb	r2, [r5, #10]
		n /= 256;
 800149a:	2b00      	cmp	r3, #0
		buf[i] = n % 256;
 800149c:	f04f 0200 	mov.w	r2, #0
	n += mask;
 80014a0:	4401      	add	r1, r0
		n /= 256;
 80014a2:	bfb8      	it	lt
 80014a4:	33ff      	addlt	r3, #255	; 0xff
		buf[i] = n % 256;
 80014a6:	1a50      	subs	r0, r2, r1
 80014a8:	b2c0      	uxtb	r0, r0
		n /= 256;
 80014aa:	ea4f 2323 	mov.w	r3, r3, asr #8
		buf[i] = n % 256;
 80014ae:	72eb      	strb	r3, [r5, #11]
 80014b0:	b2cb      	uxtb	r3, r1
 80014b2:	bf58      	it	pl
 80014b4:	4243      	negpl	r3, r0
		n /= 256;
 80014b6:	2900      	cmp	r1, #0
 80014b8:	bfb8      	it	lt
 80014ba:	31ff      	addlt	r1, #255	; 0xff
 80014bc:	1209      	asrs	r1, r1, #8
		buf[i] = n % 256;
 80014be:	732a      	strb	r2, [r5, #12]
 80014c0:	736a      	strb	r2, [r5, #13]
 80014c2:	73aa      	strb	r2, [r5, #14]
 80014c4:	73ea      	strb	r2, [r5, #15]
 80014c6:	424a      	negs	r2, r1
 80014c8:	b2d2      	uxtb	r2, r2
 80014ca:	742b      	strb	r3, [r5, #16]
 80014cc:	b2cb      	uxtb	r3, r1
 80014ce:	bf58      	it	pl
 80014d0:	4253      	negpl	r3, r2
		n /= 256;
 80014d2:	2900      	cmp	r1, #0
 80014d4:	bfb8      	it	lt
 80014d6:	31ff      	addlt	r1, #255	; 0xff
 80014d8:	1209      	asrs	r1, r1, #8
		buf[i] = n % 256;
 80014da:	424a      	negs	r2, r1
 80014dc:	b2d2      	uxtb	r2, r2
 80014de:	746b      	strb	r3, [r5, #17]
 80014e0:	b2cb      	uxtb	r3, r1
 80014e2:	bf58      	it	pl
 80014e4:	4253      	negpl	r3, r2
		n /= 256;
 80014e6:	2900      	cmp	r1, #0
 80014e8:	bfb8      	it	lt
 80014ea:	31ff      	addlt	r1, #255	; 0xff
		buf[i] = n % 256;
 80014ec:	2400      	movs	r4, #0
		n /= 256;
 80014ee:	1209      	asrs	r1, r1, #8
		buf[i] = n % 256;
 80014f0:	74e9      	strb	r1, [r5, #19]
 80014f2:	74ab      	strb	r3, [r5, #18]
 80014f4:	752c      	strb	r4, [r5, #20]
 80014f6:	756c      	strb	r4, [r5, #21]
 80014f8:	75ac      	strb	r4, [r5, #22]
 80014fa:	75ec      	strb	r4, [r5, #23]
    encode(buf, cnt);
    encode(buf+8, cp.coeffs[0]);
    encode(buf+16, cp.coeffs[1]);
    
    
	simpleserial_put('r', 24, buf);
 80014fc:	462a      	mov	r2, r5
 80014fe:	2118      	movs	r1, #24
 8001500:	2072      	movs	r0, #114	; 0x72
 8001502:	f001 fd83 	bl	800300c <simpleserial_put>
	return 0x00;
}
 8001506:	4620      	mov	r0, r4
 8001508:	f20d 4d04 	addw	sp, sp, #1028	; 0x404
 800150c:	bd30      	pop	{r4, r5, pc}
 800150e:	bf00      	nop
 8001510:	03ff000a 	.word	0x03ff000a

08001514 <main>:
int main(void)
{
 8001514:	b508      	push	{r3, lr}

    platform_init();
 8001516:	f001 fe4f 	bl	80031b8 <platform_init>
    init_uart();
 800151a:	f001 fe8f 	bl	800323c <init_uart>
    trigger_setup();
 800151e:	f001 fecd 	bl	80032bc <trigger_setup>


	simpleserial_init();
 8001522:	f001 fc25 	bl	8002d70 <simpleserial_init>

    simpleserial_addcmd(0x01, 16, challenge_fsntt);
 8001526:	4a0b      	ldr	r2, [pc, #44]	; (8001554 <main+0x40>)
 8001528:	2110      	movs	r1, #16
 800152a:	2001      	movs	r0, #1
 800152c:	f001 fc52 	bl	8002dd4 <simpleserial_addcmd>
    simpleserial_addcmd(0x02, 32, challenge_secntt);
 8001530:	4a09      	ldr	r2, [pc, #36]	; (8001558 <main+0x44>)
 8001532:	2120      	movs	r1, #32
 8001534:	2002      	movs	r0, #2
 8001536:	f001 fc4d 	bl	8002dd4 <simpleserial_addcmd>
    simpleserial_addcmd(0x03, 64, challenge_trdntt);
 800153a:	4a08      	ldr	r2, [pc, #32]	; (800155c <main+0x48>)
 800153c:	2140      	movs	r1, #64	; 0x40
 800153e:	2003      	movs	r0, #3
 8001540:	f001 fc48 	bl	8002dd4 <simpleserial_addcmd>
    simpleserial_addcmd(0x04, 64, challenge_back);
 8001544:	4a06      	ldr	r2, [pc, #24]	; (8001560 <main+0x4c>)
 8001546:	2140      	movs	r1, #64	; 0x40
 8001548:	2004      	movs	r0, #4
 800154a:	f001 fc43 	bl	8002dd4 <simpleserial_addcmd>
    
    while(1)
        simpleserial_get();
 800154e:	f001 fc61 	bl	8002e14 <simpleserial_get>
    while(1)
 8001552:	e7fc      	b.n	800154e <main+0x3a>
 8001554:	08000f9d 	.word	0x08000f9d
 8001558:	08001055 	.word	0x08001055
 800155c:	0800116d 	.word	0x0800116d
 8001560:	080013d1 	.word	0x080013d1

08001564 <PQCLEAN_MLDSA44_CLEAN_poly_challenge>:
*              SHAKE256(seed).
*
* Arguments:   - poly *c: pointer to output polynomial
*              - const uint8_t mu[]: byte array containing seed of length SEEDBYTES
**************************************************/
void PQCLEAN_MLDSA44_CLEAN_poly_challenge(poly *c, const uint8_t seed[SEEDBYTES]) {
 8001564:	b5f0      	push	{r4, r5, r6, r7, lr}
 8001566:	b0a5      	sub	sp, #148	; 0x94
 8001568:	460c      	mov	r4, r1
 800156a:	4607      	mov	r7, r0
    unsigned int i, b, pos;
    uint64_t signs;
    uint8_t buf[SHAKE256_RATE];
    shake256incctx state;

    shake256_inc_init(&state);
 800156c:	a801      	add	r0, sp, #4
 800156e:	f001 f9c1 	bl	80028f4 <shake256_inc_init>
    shake256_inc_absorb(&state, seed, SEEDBYTES);
 8001572:	4621      	mov	r1, r4
 8001574:	2220      	movs	r2, #32
 8001576:	a801      	add	r0, sp, #4
 8001578:	f001 f9d0 	bl	800291c <shake256_inc_absorb>
    shake256_inc_finalize(&state);
 800157c:	a801      	add	r0, sp, #4
 800157e:	f001 f9d3 	bl	8002928 <shake256_inc_finalize>
    shake256_inc_squeeze(buf, sizeof buf, &state);
 8001582:	aa01      	add	r2, sp, #4
 8001584:	2188      	movs	r1, #136	; 0x88
 8001586:	a802      	add	r0, sp, #8
 8001588:	f001 f9fc 	bl	8002984 <shake256_inc_squeeze>

    signs = 0;
    for (i = 0; i < 8; ++i) {
        signs |= (uint64_t)buf[i] << 8 * i;
 800158c:	f89d 3009 	ldrb.w	r3, [sp, #9]
 8001590:	f89d 5008 	ldrb.w	r5, [sp, #8]
 8001594:	f89d 600c 	ldrb.w	r6, [sp, #12]
 8001598:	ea45 2503 	orr.w	r5, r5, r3, lsl #8
 800159c:	f89d 300a 	ldrb.w	r3, [sp, #10]
 80015a0:	ea45 4503 	orr.w	r5, r5, r3, lsl #16
 80015a4:	f89d 300b 	ldrb.w	r3, [sp, #11]
 80015a8:	ea45 6503 	orr.w	r5, r5, r3, lsl #24
 80015ac:	f89d 300d 	ldrb.w	r3, [sp, #13]
 80015b0:	ea46 2603 	orr.w	r6, r6, r3, lsl #8
 80015b4:	f89d 300e 	ldrb.w	r3, [sp, #14]
 80015b8:	ea46 4603 	orr.w	r6, r6, r3, lsl #16
 80015bc:	f89d 300f 	ldrb.w	r3, [sp, #15]
    }
    pos = 8;

    for (i = 0; i < N; ++i) {
        c->coeffs[i] = 0;
 80015c0:	f44f 6280 	mov.w	r2, #1024	; 0x400
 80015c4:	2100      	movs	r1, #0
 80015c6:	4638      	mov	r0, r7
        signs |= (uint64_t)buf[i] << 8 * i;
 80015c8:	ea46 6603 	orr.w	r6, r6, r3, lsl #24
    }
    for (i = N - TAU; i < N; ++i) {
 80015cc:	24d9      	movs	r4, #217	; 0xd9
        c->coeffs[i] = 0;
 80015ce:	f7ff f9c9 	bl	8000964 <memset>
    pos = 8;
 80015d2:	f04f 0c08 	mov.w	ip, #8
 80015d6:	e010      	b.n	80015fa <PQCLEAN_MLDSA44_CLEAN_poly_challenge+0x96>
        do {
            if (pos >= SHAKE256_RATE) {
                shake256_inc_squeeze(buf, sizeof buf, &state);
 80015d8:	f001 f9d4 	bl	8002984 <shake256_inc_squeeze>
                pos = 0;
            }

            b = buf[pos++];
 80015dc:	f89d 3008 	ldrb.w	r3, [sp, #8]
        } while (b > i);
 80015e0:	429c      	cmp	r4, r3
 80015e2:	f04f 0201 	mov.w	r2, #1
 80015e6:	d211      	bcs.n	800160c <PQCLEAN_MLDSA44_CLEAN_poly_challenge+0xa8>
            b = buf[pos++];
 80015e8:	f102 0390 	add.w	r3, r2, #144	; 0x90
 80015ec:	446b      	add	r3, sp
 80015ee:	f102 0c01 	add.w	ip, r2, #1
 80015f2:	f813 3c88 	ldrb.w	r3, [r3, #-136]
        } while (b > i);
 80015f6:	42a3      	cmp	r3, r4
 80015f8:	d909      	bls.n	800160e <PQCLEAN_MLDSA44_CLEAN_poly_challenge+0xaa>
            if (pos >= SHAKE256_RATE) {
 80015fa:	f1bc 0f87 	cmp.w	ip, #135	; 0x87
                shake256_inc_squeeze(buf, sizeof buf, &state);
 80015fe:	aa01      	add	r2, sp, #4
 8001600:	f04f 0188 	mov.w	r1, #136	; 0x88
 8001604:	a802      	add	r0, sp, #8
            if (pos >= SHAKE256_RATE) {
 8001606:	d8e7      	bhi.n	80015d8 <PQCLEAN_MLDSA44_CLEAN_poly_challenge+0x74>
 8001608:	4662      	mov	r2, ip
 800160a:	e7ed      	b.n	80015e8 <PQCLEAN_MLDSA44_CLEAN_poly_challenge+0x84>
        } while (b > i);
 800160c:	4694      	mov	ip, r2

        c->coeffs[i] = c->coeffs[b];
 800160e:	f857 1023 	ldr.w	r1, [r7, r3, lsl #2]
 8001612:	f847 1024 	str.w	r1, [r7, r4, lsl #2]
        c->coeffs[b] = 1 - 2 * (signs & 1);
 8001616:	f005 0201 	and.w	r2, r5, #1
 800161a:	0052      	lsls	r2, r2, #1
    for (i = N - TAU; i < N; ++i) {
 800161c:	3401      	adds	r4, #1
        c->coeffs[b] = 1 - 2 * (signs & 1);
 800161e:	f1c2 0201 	rsb	r2, r2, #1
        signs >>= 1;
 8001622:	086d      	lsrs	r5, r5, #1
    for (i = N - TAU; i < N; ++i) {
 8001624:	f5b4 7f80 	cmp.w	r4, #256	; 0x100
        signs >>= 1;
 8001628:	ea45 75c6 	orr.w	r5, r5, r6, lsl #31
        c->coeffs[b] = 1 - 2 * (signs & 1);
 800162c:	f847 2023 	str.w	r2, [r7, r3, lsl #2]
        signs >>= 1;
 8001630:	ea4f 0656 	mov.w	r6, r6, lsr #1
    for (i = N - TAU; i < N; ++i) {
 8001634:	d1e1      	bne.n	80015fa <PQCLEAN_MLDSA44_CLEAN_poly_challenge+0x96>
    }
    shake256_inc_ctx_release(&state);
 8001636:	a801      	add	r0, sp, #4
 8001638:	f001 fa20 	bl	8002a7c <shake256_inc_ctx_release>
}
 800163c:	b025      	add	sp, #148	; 0x94
 800163e:	bdf0      	pop	{r4, r5, r6, r7, pc}

08001640 <PQCLEAN_MLDSA44_CLEAN_montgomery_reduce>:
* Returns r.
**************************************************/
int32_t PQCLEAN_MLDSA44_CLEAN_montgomery_reduce(int64_t a) {
    int32_t t;

    t = (int32_t)((uint64_t)a * (uint64_t)QINV);
 8001640:	ebc0 02c0 	rsb	r2, r0, r0, lsl #3
int32_t PQCLEAN_MLDSA44_CLEAN_montgomery_reduce(int64_t a) {
 8001644:	4603      	mov	r3, r0
 8001646:	b410      	push	{r4}
    t = (int32_t)((uint64_t)a * (uint64_t)QINV);
 8001648:	eb00 2282 	add.w	r2, r0, r2, lsl #10
    t = (a - (int64_t)t * Q) >> 32;
 800164c:	4c03      	ldr	r4, [pc, #12]	; (800165c <PQCLEAN_MLDSA44_CLEAN_montgomery_reduce+0x1c>)
int32_t PQCLEAN_MLDSA44_CLEAN_montgomery_reduce(int64_t a) {
 800164e:	4608      	mov	r0, r1
    t = (int32_t)((uint64_t)a * (uint64_t)QINV);
 8001650:	eb03 3242 	add.w	r2, r3, r2, lsl #13
    return t;
}
 8001654:	fbc2 3004 	smlal	r3, r0, r2, r4
 8001658:	bc10      	pop	{r4}
 800165a:	4770      	bx	lr
 800165c:	ff801fff 	.word	0xff801fff

08001660 <KeccakF1600_StatePermute>:
 *
 * Description: The Keccak F1600 Permutation
 *
 * Arguments:   - uint64_t *state: pointer to input/output Keccak state
 **************************************************/
static void KeccakF1600_StatePermute(uint64_t *state) {
 8001660:	e92d 4ff0 	stmdb	sp!, {r4, r5, r6, r7, r8, r9, sl, fp, lr}
 8001664:	b0c1      	sub	sp, #260	; 0x104
    uint64_t Eka, Eke, Eki, Eko, Eku;
    uint64_t Ema, Eme, Emi, Emo, Emu;
    uint64_t Esa, Ese, Esi, Eso, Esu;

    // copyFromState(A, state)
    Aba = state[0];
 8001666:	6802      	ldr	r2, [r0, #0]
 8001668:	9201      	str	r2, [sp, #4]
 800166a:	6842      	ldr	r2, [r0, #4]
 800166c:	9202      	str	r2, [sp, #8]
    Abe = state[1];
 800166e:	6882      	ldr	r2, [r0, #8]
 8001670:	9203      	str	r2, [sp, #12]
 8001672:	68c2      	ldr	r2, [r0, #12]
 8001674:	9204      	str	r2, [sp, #16]
    Abi = state[2];
 8001676:	4a35      	ldr	r2, [pc, #212]	; (800174c <KeccakF1600_StatePermute+0xec>)
 8001678:	9200      	str	r2, [sp, #0]
 800167a:	6902      	ldr	r2, [r0, #16]
 800167c:	9205      	str	r2, [sp, #20]
 800167e:	6942      	ldr	r2, [r0, #20]
 8001680:	9206      	str	r2, [sp, #24]
    Abo = state[3];
 8001682:	6982      	ldr	r2, [r0, #24]
 8001684:	9207      	str	r2, [sp, #28]
 8001686:	69c2      	ldr	r2, [r0, #28]
 8001688:	9208      	str	r2, [sp, #32]
    Abu = state[4];
 800168a:	6a02      	ldr	r2, [r0, #32]
 800168c:	9209      	str	r2, [sp, #36]	; 0x24
 800168e:	6a42      	ldr	r2, [r0, #36]	; 0x24
 8001690:	920a      	str	r2, [sp, #40]	; 0x28
    Aga = state[5];
 8001692:	6a82      	ldr	r2, [r0, #40]	; 0x28
 8001694:	920b      	str	r2, [sp, #44]	; 0x2c
 8001696:	6ac2      	ldr	r2, [r0, #44]	; 0x2c
 8001698:	920c      	str	r2, [sp, #48]	; 0x30
    Age = state[6];
 800169a:	6b02      	ldr	r2, [r0, #48]	; 0x30
 800169c:	920d      	str	r2, [sp, #52]	; 0x34
 800169e:	6b42      	ldr	r2, [r0, #52]	; 0x34
 80016a0:	920e      	str	r2, [sp, #56]	; 0x38
    Agi = state[7];
 80016a2:	6b82      	ldr	r2, [r0, #56]	; 0x38
static void KeccakF1600_StatePermute(uint64_t *state) {
 80016a4:	903f      	str	r0, [sp, #252]	; 0xfc
    Agi = state[7];
 80016a6:	920f      	str	r2, [sp, #60]	; 0x3c
 80016a8:	6bc2      	ldr	r2, [r0, #60]	; 0x3c
 80016aa:	9210      	str	r2, [sp, #64]	; 0x40
    Ago = state[8];
 80016ac:	6c02      	ldr	r2, [r0, #64]	; 0x40
 80016ae:	9211      	str	r2, [sp, #68]	; 0x44
 80016b0:	6c42      	ldr	r2, [r0, #68]	; 0x44
 80016b2:	9212      	str	r2, [sp, #72]	; 0x48
    Agu = state[9];
 80016b4:	6c82      	ldr	r2, [r0, #72]	; 0x48
 80016b6:	9213      	str	r2, [sp, #76]	; 0x4c
 80016b8:	6cc2      	ldr	r2, [r0, #76]	; 0x4c
 80016ba:	9214      	str	r2, [sp, #80]	; 0x50
    Aka = state[10];
 80016bc:	6d02      	ldr	r2, [r0, #80]	; 0x50
 80016be:	9215      	str	r2, [sp, #84]	; 0x54
 80016c0:	6d42      	ldr	r2, [r0, #84]	; 0x54
 80016c2:	922f      	str	r2, [sp, #188]	; 0xbc
    Ake = state[11];
 80016c4:	6d82      	ldr	r2, [r0, #88]	; 0x58
 80016c6:	9216      	str	r2, [sp, #88]	; 0x58
 80016c8:	6dc2      	ldr	r2, [r0, #92]	; 0x5c
 80016ca:	9217      	str	r2, [sp, #92]	; 0x5c
    Aki = state[12];
 80016cc:	6e02      	ldr	r2, [r0, #96]	; 0x60
 80016ce:	9218      	str	r2, [sp, #96]	; 0x60
 80016d0:	6e42      	ldr	r2, [r0, #100]	; 0x64
 80016d2:	9219      	str	r2, [sp, #100]	; 0x64
    Ako = state[13];
 80016d4:	6e82      	ldr	r2, [r0, #104]	; 0x68
 80016d6:	921a      	str	r2, [sp, #104]	; 0x68
 80016d8:	6ec2      	ldr	r2, [r0, #108]	; 0x6c
 80016da:	921b      	str	r2, [sp, #108]	; 0x6c
    Aku = state[14];
 80016dc:	6f02      	ldr	r2, [r0, #112]	; 0x70
 80016de:	921c      	str	r2, [sp, #112]	; 0x70
 80016e0:	6f42      	ldr	r2, [r0, #116]	; 0x74
 80016e2:	921d      	str	r2, [sp, #116]	; 0x74
    Ama = state[15];
 80016e4:	6f82      	ldr	r2, [r0, #120]	; 0x78
 80016e6:	921e      	str	r2, [sp, #120]	; 0x78
    Ame = state[16];
 80016e8:	e9d0 921f 	ldrd	r9, r2, [r0, #124]	; 0x7c
 80016ec:	921f      	str	r2, [sp, #124]	; 0x7c
 80016ee:	f8d0 2084 	ldr.w	r2, [r0, #132]	; 0x84
 80016f2:	9220      	str	r2, [sp, #128]	; 0x80
    Ami = state[17];
 80016f4:	f8d0 2088 	ldr.w	r2, [r0, #136]	; 0x88
 80016f8:	9221      	str	r2, [sp, #132]	; 0x84
 80016fa:	f8d0 208c 	ldr.w	r2, [r0, #140]	; 0x8c
 80016fe:	9222      	str	r2, [sp, #136]	; 0x88
    Amo = state[18];
 8001700:	f8d0 2090 	ldr.w	r2, [r0, #144]	; 0x90
 8001704:	9223      	str	r2, [sp, #140]	; 0x8c
 8001706:	f8d0 2094 	ldr.w	r2, [r0, #148]	; 0x94
 800170a:	9224      	str	r2, [sp, #144]	; 0x90
    Amu = state[19];
 800170c:	f8d0 2098 	ldr.w	r2, [r0, #152]	; 0x98
 8001710:	9225      	str	r2, [sp, #148]	; 0x94
 8001712:	f8d0 209c 	ldr.w	r2, [r0, #156]	; 0x9c
 8001716:	9226      	str	r2, [sp, #152]	; 0x98
    Asa = state[20];
    Ase = state[21];
 8001718:	f8d0 20a8 	ldr.w	r2, [r0, #168]	; 0xa8
 800171c:	9227      	str	r2, [sp, #156]	; 0x9c
    Asi = state[22];
 800171e:	e9d0 a22b 	ldrd	sl, r2, [r0, #172]	; 0xac
 8001722:	9228      	str	r2, [sp, #160]	; 0xa0
 8001724:	f8d0 20b4 	ldr.w	r2, [r0, #180]	; 0xb4
 8001728:	9229      	str	r2, [sp, #164]	; 0xa4
    Aso = state[23];
 800172a:	f8d0 20b8 	ldr.w	r2, [r0, #184]	; 0xb8
 800172e:	922a      	str	r2, [sp, #168]	; 0xa8
    Asa = state[20];
 8001730:	e9d0 c728 	ldrd	ip, r7, [r0, #160]	; 0xa0
    Aso = state[23];
 8001734:	f8d0 20bc 	ldr.w	r2, [r0, #188]	; 0xbc
 8001738:	922b      	str	r2, [sp, #172]	; 0xac
    Asu = state[24];
 800173a:	f8d0 20c0 	ldr.w	r2, [r0, #192]	; 0xc0
 800173e:	922c      	str	r2, [sp, #176]	; 0xb0
 8001740:	f8d0 30c4 	ldr.w	r3, [r0, #196]	; 0xc4
 8001744:	932d      	str	r3, [sp, #180]	; 0xb4

    for (round = 0; round < NROUNDS; round += 2) {
 8001746:	464a      	mov	r2, r9
 8001748:	46bb      	mov	fp, r7
 800174a:	e001      	b.n	8001750 <KeccakF1600_StatePermute+0xf0>
 800174c:	08004300 	.word	0x08004300
        //    prepareTheta
        BCa = Aba ^ Aga ^ Aka ^ Ama ^ Asa;
 8001750:	9b01      	ldr	r3, [sp, #4]
 8001752:	990b      	ldr	r1, [sp, #44]	; 0x2c
 8001754:	9802      	ldr	r0, [sp, #8]
 8001756:	9c0c      	ldr	r4, [sp, #48]	; 0x30
        BCe = Abe ^ Age ^ Ake ^ Ame ^ Ase;
 8001758:	9e0d      	ldr	r6, [sp, #52]	; 0x34
 800175a:	f8dd e010 	ldr.w	lr, [sp, #16]
 800175e:	f8dd 8038 	ldr.w	r8, [sp, #56]	; 0x38
        BCa = Aba ^ Aga ^ Aka ^ Ama ^ Asa;
 8001762:	ea83 0701 	eor.w	r7, r3, r1
 8001766:	9b15      	ldr	r3, [sp, #84]	; 0x54
 8001768:	991e      	ldr	r1, [sp, #120]	; 0x78
 800176a:	405f      	eors	r7, r3
 800176c:	404f      	eors	r7, r1
 800176e:	ea87 030c 	eor.w	r3, r7, ip
 8001772:	9f2f      	ldr	r7, [sp, #188]	; 0xbc
 8001774:	932e      	str	r3, [sp, #184]	; 0xb8
 8001776:	ea80 0304 	eor.w	r3, r0, r4
 800177a:	407b      	eors	r3, r7
 800177c:	4053      	eors	r3, r2
 800177e:	ea83 050b 	eor.w	r5, r3, fp
        BCi = Abi ^ Agi ^ Aki ^ Ami ^ Asi;
 8001782:	990f      	ldr	r1, [sp, #60]	; 0x3c
 8001784:	9b05      	ldr	r3, [sp, #20]
        BCa = Aba ^ Aga ^ Aka ^ Ama ^ Asa;
 8001786:	952f      	str	r5, [sp, #188]	; 0xbc
        BCe = Abe ^ Age ^ Ake ^ Ame ^ Ase;
 8001788:	9d03      	ldr	r5, [sp, #12]
 800178a:	9c16      	ldr	r4, [sp, #88]	; 0x58
 800178c:	ea85 0006 	eor.w	r0, r5, r6
        BCi = Abi ^ Agi ^ Aki ^ Ami ^ Asi;
 8001790:	404b      	eors	r3, r1
        BCe = Abe ^ Age ^ Ake ^ Ame ^ Ase;
 8001792:	9d1f      	ldr	r5, [sp, #124]	; 0x7c
        BCi = Abi ^ Agi ^ Aki ^ Ami ^ Asi;
 8001794:	9918      	ldr	r1, [sp, #96]	; 0x60
        BCe = Abe ^ Age ^ Ake ^ Ame ^ Ase;
 8001796:	9e27      	ldr	r6, [sp, #156]	; 0x9c
 8001798:	ea8e 0908 	eor.w	r9, lr, r8
 800179c:	4060      	eors	r0, r4
 800179e:	f8dd e05c 	ldr.w	lr, [sp, #92]	; 0x5c
        BCi = Abi ^ Agi ^ Aki ^ Ami ^ Asi;
 80017a2:	9c21      	ldr	r4, [sp, #132]	; 0x84
        BCe = Abe ^ Age ^ Ake ^ Ame ^ Ase;
 80017a4:	f8dd 8080 	ldr.w	r8, [sp, #128]	; 0x80
 80017a8:	4068      	eors	r0, r5
        BCi = Abi ^ Agi ^ Aki ^ Ami ^ Asi;
 80017aa:	404b      	eors	r3, r1
 80017ac:	9d28      	ldr	r5, [sp, #160]	; 0xa0
        BCe = Abe ^ Age ^ Ake ^ Ame ^ Ase;
 80017ae:	4070      	eors	r0, r6
        BCi = Abi ^ Agi ^ Aki ^ Ami ^ Asi;
 80017b0:	4063      	eors	r3, r4
 80017b2:	9e06      	ldr	r6, [sp, #24]
        BCo = Abo ^ Ago ^ Ako ^ Amo ^ Aso;
 80017b4:	9c07      	ldr	r4, [sp, #28]
        BCe = Abe ^ Age ^ Ake ^ Ame ^ Ase;
 80017b6:	ea89 090e 	eor.w	r9, r9, lr
        BCi = Abi ^ Agi ^ Aki ^ Ami ^ Asi;
 80017ba:	f8dd e040 	ldr.w	lr, [sp, #64]	; 0x40
        BCe = Abe ^ Age ^ Ake ^ Ame ^ Ase;
 80017be:	ea89 0908 	eor.w	r9, r9, r8
        BCi = Abi ^ Agi ^ Aki ^ Ami ^ Asi;
 80017c2:	ea83 0805 	eor.w	r8, r3, r5
 80017c6:	9b19      	ldr	r3, [sp, #100]	; 0x64
 80017c8:	9d22      	ldr	r5, [sp, #136]	; 0x88
 80017ca:	ea86 010e 	eor.w	r1, r6, lr
        BCo = Abo ^ Ago ^ Ako ^ Amo ^ Aso;
 80017ce:	f8dd e044 	ldr.w	lr, [sp, #68]	; 0x44
        BCi = Abi ^ Agi ^ Aki ^ Ami ^ Asi;
 80017d2:	9e29      	ldr	r6, [sp, #164]	; 0xa4
 80017d4:	4059      	eors	r1, r3
        BCo = Abo ^ Ago ^ Ako ^ Amo ^ Aso;
 80017d6:	9b1a      	ldr	r3, [sp, #104]	; 0x68
        BCi = Abi ^ Agi ^ Aki ^ Ami ^ Asi;
 80017d8:	4069      	eors	r1, r5
        BCo = Abo ^ Ago ^ Ako ^ Amo ^ Aso;
 80017da:	ea84 050e 	eor.w	r5, r4, lr
 80017de:	9c23      	ldr	r4, [sp, #140]	; 0x8c
        BCi = Abi ^ Agi ^ Aki ^ Ami ^ Asi;
 80017e0:	4071      	eors	r1, r6
        BCo = Abo ^ Ago ^ Ako ^ Amo ^ Aso;
 80017e2:	405d      	eors	r5, r3
 80017e4:	9e2a      	ldr	r6, [sp, #168]	; 0xa8
 80017e6:	9b08      	ldr	r3, [sp, #32]
 80017e8:	4065      	eors	r5, r4
 80017ea:	9c12      	ldr	r4, [sp, #72]	; 0x48
 80017ec:	4075      	eors	r5, r6
 80017ee:	9e1b      	ldr	r6, [sp, #108]	; 0x6c
 80017f0:	ea83 0e04 	eor.w	lr, r3, r4
 80017f4:	9b24      	ldr	r3, [sp, #144]	; 0x90
 80017f6:	9c2b      	ldr	r4, [sp, #172]	; 0xac
 80017f8:	ea8e 0e06 	eor.w	lr, lr, r6
 80017fc:	ea8e 0e03 	eor.w	lr, lr, r3
 8001800:	ea8e 0604 	eor.w	r6, lr, r4
        BCu = Abu ^ Agu ^ Aku ^ Amu ^ Asu;
 8001804:	9b13      	ldr	r3, [sp, #76]	; 0x4c
 8001806:	f8dd e024 	ldr.w	lr, [sp, #36]	; 0x24
 800180a:	ea8e 0403 	eor.w	r4, lr, r3
 800180e:	9b1c      	ldr	r3, [sp, #112]	; 0x70
 8001810:	f8dd e028 	ldr.w	lr, [sp, #40]	; 0x28
 8001814:	405c      	eors	r4, r3
 8001816:	9b25      	ldr	r3, [sp, #148]	; 0x94
 8001818:	405c      	eors	r4, r3
 800181a:	9b2c      	ldr	r3, [sp, #176]	; 0xb0
 800181c:	405c      	eors	r4, r3
 800181e:	9b14      	ldr	r3, [sp, #80]	; 0x50
 8001820:	ea8e 0e03 	eor.w	lr, lr, r3
 8001824:	9b1d      	ldr	r3, [sp, #116]	; 0x74
 8001826:	ea8e 0e03 	eor.w	lr, lr, r3
 800182a:	9b26      	ldr	r3, [sp, #152]	; 0x98
 800182c:	ea8e 0e03 	eor.w	lr, lr, r3
 8001830:	9b2d      	ldr	r3, [sp, #180]	; 0xb4
        BCe = Abe ^ Age ^ Ake ^ Ame ^ Ase;
 8001832:	ea89 090a 	eor.w	r9, r9, sl
        BCu = Abu ^ Agu ^ Aku ^ Amu ^ Asu;
 8001836:	ea8e 0e03 	eor.w	lr, lr, r3

        // thetaRhoPiChiIotaPrepareTheta(round  , A, E)
        Da = BCu ^ ROL(BCe, 1);
 800183a:	ea4f 0349 	mov.w	r3, r9, lsl #1
 800183e:	ea43 73d0 	orr.w	r3, r3, r0, lsr #31
 8001842:	ea83 030e 	eor.w	r3, r3, lr
        BCe = ROL(Agi, 6);
        Ako ^= Do;
        BCi = ROL(Ako, 25);
        Amu ^= Du;
        BCo = ROL(Amu, 8);
        Asa ^= Da;
 8001846:	ea83 0b0b 	eor.w	fp, r3, fp
 800184a:	f8cd b0cc 	str.w	fp, [sp, #204]	; 0xcc
        Aba ^= Da;
 800184e:	f8dd b008 	ldr.w	fp, [sp, #8]
 8001852:	ea83 0b0b 	eor.w	fp, r3, fp
 8001856:	f8cd b0c0 	str.w	fp, [sp, #192]	; 0xc0
        Eko = BCo ^ ((~BCu) & BCa);
        Eku = BCu ^ ((~BCa) & BCe);

        Abu ^= Du;
        BCa = ROL(Abu, 27);
        Aga ^= Da;
 800185a:	f8dd b030 	ldr.w	fp, [sp, #48]	; 0x30
 800185e:	ea83 0b0b 	eor.w	fp, r3, fp
        Aka ^= Da;
 8001862:	405f      	eors	r7, r3
        Aga ^= Da;
 8001864:	f8cd b0d4 	str.w	fp, [sp, #212]	; 0xd4
        BCa = ROL(Abi, 62);
        Ago ^= Do;
        BCe = ROL(Ago, 55);
        Aku ^= Du;
        BCi = ROL(Aku, 39);
        Ama ^= Da;
 8001868:	ea83 0b02 	eor.w	fp, r3, r2
        Da = BCu ^ ROL(BCe, 1);
 800186c:	0043      	lsls	r3, r0, #1
 800186e:	ea43 73d9 	orr.w	r3, r3, r9, lsr #31
 8001872:	4063      	eors	r3, r4
        Asa ^= Da;
 8001874:	ea83 0c0c 	eor.w	ip, r3, ip
        Aka ^= Da;
 8001878:	9731      	str	r7, [sp, #196]	; 0xc4
 800187a:	9f15      	ldr	r7, [sp, #84]	; 0x54
        Asa ^= Da;
 800187c:	f8cd c0c8 	str.w	ip, [sp, #200]	; 0xc8
        Aba ^= Da;
 8001880:	f8dd c004 	ldr.w	ip, [sp, #4]
        Aga ^= Da;
 8001884:	9a0b      	ldr	r2, [sp, #44]	; 0x2c
        Ama ^= Da;
 8001886:	f8cd b0f0 	str.w	fp, [sp, #240]	; 0xf0
        Aka ^= Da;
 800188a:	ea83 0b07 	eor.w	fp, r3, r7
        Ama ^= Da;
 800188e:	9f1e      	ldr	r7, [sp, #120]	; 0x78
        Aka ^= Da;
 8001890:	f8cd b030 	str.w	fp, [sp, #48]	; 0x30
        Aba ^= Da;
 8001894:	ea83 0c0c 	eor.w	ip, r3, ip
        Ama ^= Da;
 8001898:	405f      	eors	r7, r3
        Aba ^= Da;
 800189a:	f8cd c008 	str.w	ip, [sp, #8]
        Aga ^= Da;
 800189e:	ea83 0c02 	eor.w	ip, r3, r2
 80018a2:	f8cd c0d0 	str.w	ip, [sp, #208]	; 0xd0
        Ama ^= Da;
 80018a6:	973b      	str	r7, [sp, #236]	; 0xec
        De = BCa ^ ROL(BCi, 1);
 80018a8:	004b      	lsls	r3, r1, #1
 80018aa:	9a2f      	ldr	r2, [sp, #188]	; 0xbc
        Abe ^= De;
 80018ac:	f8dd c010 	ldr.w	ip, [sp, #16]
        Age ^= De;
 80018b0:	f8dd b038 	ldr.w	fp, [sp, #56]	; 0x38
        Ame ^= De;
 80018b4:	9f1f      	ldr	r7, [sp, #124]	; 0x7c
        De = BCa ^ ROL(BCi, 1);
 80018b6:	ea43 73d8 	orr.w	r3, r3, r8, lsr #31
 80018ba:	4053      	eors	r3, r2
        Abe ^= De;
 80018bc:	ea83 0c0c 	eor.w	ip, r3, ip
        Ame ^= De;
 80018c0:	9a20      	ldr	r2, [sp, #128]	; 0x80
        Abe ^= De;
 80018c2:	f8cd c078 	str.w	ip, [sp, #120]	; 0x78
        Ake ^= De;
 80018c6:	f8dd c05c 	ldr.w	ip, [sp, #92]	; 0x5c
        Ame ^= De;
 80018ca:	405a      	eors	r2, r3
        Age ^= De;
 80018cc:	ea83 0b0b 	eor.w	fp, r3, fp
        Ake ^= De;
 80018d0:	ea83 0c0c 	eor.w	ip, r3, ip
        BCo = ROL(Ama, 41);
        Ase ^= De;
 80018d4:	ea83 0a0a 	eor.w	sl, r3, sl
        Ame ^= De;
 80018d8:	9215      	str	r2, [sp, #84]	; 0x54
        De = BCa ^ ROL(BCi, 1);
 80018da:	ea4f 0348 	mov.w	r3, r8, lsl #1
 80018de:	9a2e      	ldr	r2, [sp, #184]	; 0xb8
        Ase ^= De;
 80018e0:	f8cd a0f8 	str.w	sl, [sp, #248]	; 0xf8
        De = BCa ^ ROL(BCi, 1);
 80018e4:	ea43 73d1 	orr.w	r3, r3, r1, lsr #31
 80018e8:	4053      	eors	r3, r2
        Ame ^= De;
 80018ea:	405f      	eors	r7, r3
        Abe ^= De;
 80018ec:	9a03      	ldr	r2, [sp, #12]
        Age ^= De;
 80018ee:	f8dd a034 	ldr.w	sl, [sp, #52]	; 0x34
        Ame ^= De;
 80018f2:	970d      	str	r7, [sp, #52]	; 0x34
        Ake ^= De;
 80018f4:	9f16      	ldr	r7, [sp, #88]	; 0x58
 80018f6:	f8cd c0dc 	str.w	ip, [sp, #220]	; 0xdc
        Abe ^= De;
 80018fa:	405a      	eors	r2, r3
 80018fc:	9201      	str	r2, [sp, #4]
        Ake ^= De;
 80018fe:	ea83 0207 	eor.w	r2, r3, r7
        Ase ^= De;
 8001902:	9f27      	ldr	r7, [sp, #156]	; 0x9c
        Ake ^= De;
 8001904:	9236      	str	r2, [sp, #216]	; 0xd8
        Di = BCe ^ ROL(BCo, 1);
 8001906:	0072      	lsls	r2, r6, #1
        Ase ^= De;
 8001908:	ea83 0c07 	eor.w	ip, r3, r7
        Di = BCe ^ ROL(BCo, 1);
 800190c:	ea42 72d5 	orr.w	r2, r2, r5, lsr #31
        Asi ^= Di;
 8001910:	9f29      	ldr	r7, [sp, #164]	; 0xa4
        Ase ^= De;
 8001912:	f8cd c0f4 	str.w	ip, [sp, #244]	; 0xf4
        Di = BCe ^ ROL(BCo, 1);
 8001916:	ea82 0209 	eor.w	r2, r2, r9
        Asi ^= Di;
 800191a:	ea82 0c07 	eor.w	ip, r2, r7
 800191e:	f8cd c05c 	str.w	ip, [sp, #92]	; 0x5c
        Agi ^= Di;
 8001922:	f8dd c040 	ldr.w	ip, [sp, #64]	; 0x40
        Ami ^= Di;
 8001926:	9f22      	ldr	r7, [sp, #136]	; 0x88
        Aki ^= Di;
 8001928:	f8dd 9064 	ldr.w	r9, [sp, #100]	; 0x64
        Agi ^= Di;
 800192c:	ea82 0c0c 	eor.w	ip, r2, ip
 8001930:	f8cd c064 	str.w	ip, [sp, #100]	; 0x64
        Ami ^= Di;
 8001934:	ea82 0c07 	eor.w	ip, r2, r7
 8001938:	f8cd c0a4 	str.w	ip, [sp, #164]	; 0xa4
        Abi ^= Di;
 800193c:	f8dd c018 	ldr.w	ip, [sp, #24]
        Aki ^= Di;
 8001940:	9f18      	ldr	r7, [sp, #96]	; 0x60
 8001942:	ea82 0909 	eor.w	r9, r2, r9
        Abi ^= Di;
 8001946:	ea82 0c0c 	eor.w	ip, r2, ip
        Di = BCe ^ ROL(BCo, 1);
 800194a:	006a      	lsls	r2, r5, #1
 800194c:	ea42 72d6 	orr.w	r2, r2, r6, lsr #31
 8001950:	4050      	eors	r0, r2
        Asi ^= Di;
 8001952:	9a28      	ldr	r2, [sp, #160]	; 0xa0
        Abi ^= Di;
 8001954:	f8cd c0e4 	str.w	ip, [sp, #228]	; 0xe4
        Asi ^= Di;
 8001958:	4042      	eors	r2, r0
 800195a:	9216      	str	r2, [sp, #88]	; 0x58
        Agi ^= Di;
 800195c:	9a0f      	ldr	r2, [sp, #60]	; 0x3c
 800195e:	4042      	eors	r2, r0
 8001960:	9204      	str	r2, [sp, #16]
        Aki ^= Di;
 8001962:	ea80 0c07 	eor.w	ip, r0, r7
        Ami ^= Di;
 8001966:	9f21      	ldr	r7, [sp, #132]	; 0x84
 8001968:	ea80 0207 	eor.w	r2, r0, r7
 800196c:	9227      	str	r2, [sp, #156]	; 0x9c
        Abi ^= Di;
 800196e:	9a05      	ldr	r2, [sp, #20]
        Aso ^= Do;
 8001970:	9f2a      	ldr	r7, [sp, #168]	; 0xa8
        Abi ^= Di;
 8001972:	4050      	eors	r0, r2
        Do = BCi ^ ROL(BCu, 1);
 8001974:	ea4f 024e 	mov.w	r2, lr, lsl #1
 8001978:	ea42 72d4 	orr.w	r2, r2, r4, lsr #31
 800197c:	0064      	lsls	r4, r4, #1
 800197e:	404a      	eors	r2, r1
 8001980:	ea44 74de 	orr.w	r4, r4, lr, lsr #31
        Abo ^= Do;
 8001984:	9907      	ldr	r1, [sp, #28]
        Ako ^= Do;
 8001986:	f8dd e068 	ldr.w	lr, [sp, #104]	; 0x68
        Abi ^= Di;
 800198a:	9038      	str	r0, [sp, #224]	; 0xe0
        Age ^= De;
 800198c:	ea83 0a0a 	eor.w	sl, r3, sl
        Do = BCi ^ ROL(BCu, 1);
 8001990:	ea84 0308 	eor.w	r3, r4, r8
        Abo ^= Do;
 8001994:	4059      	eors	r1, r3
        Ako ^= Do;
 8001996:	ea83 0e0e 	eor.w	lr, r3, lr
        Abo ^= Do;
 800199a:	910b      	str	r1, [sp, #44]	; 0x2c
        Ako ^= Do;
 800199c:	f8cd e060 	str.w	lr, [sp, #96]	; 0x60
        Abo ^= Do;
 80019a0:	9908      	ldr	r1, [sp, #32]
        Amo ^= Do;
 80019a2:	f8dd 808c 	ldr.w	r8, [sp, #140]	; 0x8c
        Aso ^= Do;
 80019a6:	ea83 0e07 	eor.w	lr, r3, r7
 80019aa:	f8cd e0a0 	str.w	lr, [sp, #160]	; 0xa0
        Ago ^= Do;
 80019ae:	f8dd e044 	ldr.w	lr, [sp, #68]	; 0x44
        Abo ^= Do;
 80019b2:	ea82 0401 	eor.w	r4, r2, r1
        Ako ^= Do;
 80019b6:	991b      	ldr	r1, [sp, #108]	; 0x6c
        Ago ^= Do;
 80019b8:	ea83 0e0e 	eor.w	lr, r3, lr
        Ako ^= Do;
 80019bc:	4051      	eors	r1, r2
        Ago ^= Do;
 80019be:	f8cd e0e8 	str.w	lr, [sp, #232]	; 0xe8
        Aso ^= Do;
 80019c2:	f8dd e0ac 	ldr.w	lr, [sp, #172]	; 0xac
        Ako ^= Do;
 80019c6:	9105      	str	r1, [sp, #20]
        Amo ^= Do;
 80019c8:	ea83 0008 	eor.w	r0, r3, r8
        Ago ^= Do;
 80019cc:	9912      	ldr	r1, [sp, #72]	; 0x48
        Amo ^= Do;
 80019ce:	f8dd 8090 	ldr.w	r8, [sp, #144]	; 0x90
        Aso ^= Do;
 80019d2:	ea82 0e0e 	eor.w	lr, r2, lr
        Amo ^= Do;
 80019d6:	ea82 0808 	eor.w	r8, r2, r8
        Aso ^= Do;
 80019da:	f8cd e0a8 	str.w	lr, [sp, #168]	; 0xa8
        Ago ^= Do;
 80019de:	ea82 0e01 	eor.w	lr, r2, r1
        Du = BCo ^ ROL(BCa, 1);
 80019e2:	992f      	ldr	r1, [sp, #188]	; 0xbc
 80019e4:	9a2e      	ldr	r2, [sp, #184]	; 0xb8
        Ago ^= Do;
 80019e6:	f8cd e0ac 	str.w	lr, [sp, #172]	; 0xac
        Du = BCo ^ ROL(BCa, 1);
 80019ea:	0057      	lsls	r7, r2, #1
 80019ec:	ea4f 0e41 	mov.w	lr, r1, lsl #1
 80019f0:	ea4e 7ed2 	orr.w	lr, lr, r2, lsr #31
 80019f4:	ea47 77d1 	orr.w	r7, r7, r1, lsr #31
        Agu ^= Du;
 80019f8:	9914      	ldr	r1, [sp, #80]	; 0x50
 80019fa:	9a13      	ldr	r2, [sp, #76]	; 0x4c
        Du = BCo ^ ROL(BCa, 1);
 80019fc:	ea8e 0e06 	eor.w	lr, lr, r6
        Agu ^= Du;
 8001a00:	ea8e 0301 	eor.w	r3, lr, r1
        Amu ^= Du;
 8001a04:	9925      	ldr	r1, [sp, #148]	; 0x94
        Asu ^= Du;
 8001a06:	9e2c      	ldr	r6, [sp, #176]	; 0xb0
        Du = BCo ^ ROL(BCa, 1);
 8001a08:	406f      	eors	r7, r5
        Amu ^= Du;
 8001a0a:	4079      	eors	r1, r7
 8001a0c:	9112      	str	r1, [sp, #72]	; 0x48
 8001a0e:	9926      	ldr	r1, [sp, #152]	; 0x98
        Asu ^= Du;
 8001a10:	9d2d      	ldr	r5, [sp, #180]	; 0xb4
        Amu ^= Du;
 8001a12:	ea8e 0101 	eor.w	r1, lr, r1
 8001a16:	9114      	str	r1, [sp, #80]	; 0x50
        Abu ^= Du;
 8001a18:	9909      	ldr	r1, [sp, #36]	; 0x24
 8001a1a:	4079      	eors	r1, r7
 8001a1c:	9122      	str	r1, [sp, #136]	; 0x88
        Aku ^= Du;
 8001a1e:	991c      	ldr	r1, [sp, #112]	; 0x70
        Asu ^= Du;
 8001a20:	407e      	eors	r6, r7
        Agu ^= Du;
 8001a22:	407a      	eors	r2, r7
        Aku ^= Du;
 8001a24:	404f      	eors	r7, r1
        Abu ^= Du;
 8001a26:	990a      	ldr	r1, [sp, #40]	; 0x28
        Aku ^= Du;
 8001a28:	9725      	str	r7, [sp, #148]	; 0x94
        Abu ^= Du;
 8001a2a:	ea8e 0701 	eor.w	r7, lr, r1
        Aku ^= Du;
 8001a2e:	991d      	ldr	r1, [sp, #116]	; 0x74
        Abu ^= Du;
 8001a30:	9724      	str	r7, [sp, #144]	; 0x90
        Asu ^= Du;
 8001a32:	ea8e 0505 	eor.w	r5, lr, r5
        Aku ^= Du;
 8001a36:	ea8e 0e01 	eor.w	lr, lr, r1
 8001a3a:	f8cd e098 	str.w	lr, [sp, #152]	; 0x98
        Eba ^= KeccakF_RoundConstants[round];
 8001a3e:	f8dd e000 	ldr.w	lr, [sp]
 8001a42:	9902      	ldr	r1, [sp, #8]
 8001a44:	f8de 7000 	ldr.w	r7, [lr]
 8001a48:	4079      	eors	r1, r7
 8001a4a:	f8de 7004 	ldr.w	r7, [lr, #4]
 8001a4e:	f8dd e0c0 	ldr.w	lr, [sp, #192]	; 0xc0
 8001a52:	9107      	str	r1, [sp, #28]
 8001a54:	ea8e 0107 	eor.w	r1, lr, r7
        BCe = ROL(Age, 44);
 8001a58:	ea4f 5e1a 	mov.w	lr, sl, lsr #20
 8001a5c:	ea4f 571b 	mov.w	r7, fp, lsr #20
 8001a60:	ea4e 3e0b 	orr.w	lr, lr, fp, lsl #12
 8001a64:	ea47 3b0a 	orr.w	fp, r7, sl, lsl #12
        BCi = ROL(Aki, 43);
 8001a68:	ea4f 5a5c 	mov.w	sl, ip, lsr #21
 8001a6c:	ea4a 2ac9 	orr.w	sl, sl, r9, lsl #11
 8001a70:	ea4f 5959 	mov.w	r9, r9, lsr #21
 8001a74:	ea49 2ccc 	orr.w	ip, r9, ip, lsl #11
        BCu = ROL(Asu, 14);
 8001a78:	ea4f 3985 	mov.w	r9, r5, lsl #14
 8001a7c:	ea49 4996 	orr.w	r9, r9, r6, lsr #18
        Eba ^= KeccakF_RoundConstants[round];
 8001a80:	9108      	str	r1, [sp, #32]
        BCu = ROL(Asu, 14);
 8001a82:	03b6      	lsls	r6, r6, #14
        BCa = ROL(Abo, 28);
 8001a84:	990b      	ldr	r1, [sp, #44]	; 0x2c
        BCi = ROL(Aki, 43);
 8001a86:	f8cd c018 	str.w	ip, [sp, #24]
        BCu = ROL(Asu, 14);
 8001a8a:	ea46 4695 	orr.w	r6, r6, r5, lsr #18
        BCa = ROL(Abo, 28);
 8001a8e:	0725      	lsls	r5, r4, #28
 8001a90:	ea45 1511 	orr.w	r5, r5, r1, lsr #4
        BCo = ROL(Amo, 21);
 8001a94:	ea4f 5c48 	mov.w	ip, r8, lsl #21
        BCa = ROL(Abo, 28);
 8001a98:	0709      	lsls	r1, r1, #28
        BCo = ROL(Amo, 21);
 8001a9a:	ea4c 2cd0 	orr.w	ip, ip, r0, lsr #11
        BCa = ROL(Abo, 28);
 8001a9e:	ea41 1114 	orr.w	r1, r1, r4, lsr #4
        BCo = ROL(Amo, 21);
 8001aa2:	0540      	lsls	r0, r0, #21
        BCe = ROL(Agu, 20);
 8001aa4:	051c      	lsls	r4, r3, #20
        BCi = ROL(Aka, 3);
 8001aa6:	9f0c      	ldr	r7, [sp, #48]	; 0x30
        BCa = ROL(Abo, 28);
 8001aa8:	950f      	str	r5, [sp, #60]	; 0x3c
        BCo = ROL(Amo, 21);
 8001aaa:	ea40 20d8 	orr.w	r0, r0, r8, lsr #11
        BCe = ROL(Agu, 20);
 8001aae:	ea44 3812 	orr.w	r8, r4, r2, lsr #12
        BCi = ROL(Aka, 3);
 8001ab2:	9c31      	ldr	r4, [sp, #196]	; 0xc4
        BCe = ROL(Agu, 20);
 8001ab4:	f8cd 8040 	str.w	r8, [sp, #64]	; 0x40
 8001ab8:	0512      	lsls	r2, r2, #20
 8001aba:	ea42 3213 	orr.w	r2, r2, r3, lsr #12
        BCi = ROL(Aka, 3);
 8001abe:	00fd      	lsls	r5, r7, #3
 8001ac0:	00e3      	lsls	r3, r4, #3
 8001ac2:	ea43 7857 	orr.w	r8, r3, r7, lsr #29
 8001ac6:	ea45 7354 	orr.w	r3, r5, r4, lsr #29
        BCo = ROL(Ame, 45);
 8001aca:	9c0d      	ldr	r4, [sp, #52]	; 0x34
        BCi = ROL(Aka, 3);
 8001acc:	930e      	str	r3, [sp, #56]	; 0x38
        BCo = ROL(Ame, 45);
 8001ace:	9b15      	ldr	r3, [sp, #84]	; 0x54
        BCu = ROL(Asi, 61);
 8001ad0:	9d16      	ldr	r5, [sp, #88]	; 0x58
        BCi = ROL(Aka, 3);
 8001ad2:	f8cd 8044 	str.w	r8, [sp, #68]	; 0x44
        BCo = ROL(Ame, 45);
 8001ad6:	0ce7      	lsrs	r7, r4, #19
 8001ad8:	ea47 3743 	orr.w	r7, r7, r3, lsl #13
 8001adc:	0cdb      	lsrs	r3, r3, #19
 8001ade:	ea43 3344 	orr.w	r3, r3, r4, lsl #13
        BCu = ROL(Asi, 61);
 8001ae2:	9c17      	ldr	r4, [sp, #92]	; 0x5c
        BCe = ROL(Age, 44);
 8001ae4:	f8cd b00c 	str.w	fp, [sp, #12]
        BCu = ROL(Asi, 61);
 8001ae8:	ea4f 08d5 	mov.w	r8, r5, lsr #3
 8001aec:	ea48 7844 	orr.w	r8, r8, r4, lsl #29
 8001af0:	08e4      	lsrs	r4, r4, #3
 8001af2:	ea44 7445 	orr.w	r4, r4, r5, lsl #29
 8001af6:	9413      	str	r4, [sp, #76]	; 0x4c
        BCa = ROL(Abe, 1);
 8001af8:	9c1e      	ldr	r4, [sp, #120]	; 0x78
 8001afa:	9d01      	ldr	r5, [sp, #4]
 8001afc:	ea4f 0b44 	mov.w	fp, r4, lsl #1
 8001b00:	ea4b 75d5 	orr.w	r5, fp, r5, lsr #31
 8001b04:	951b      	str	r5, [sp, #108]	; 0x6c
 8001b06:	9d01      	ldr	r5, [sp, #4]
 8001b08:	ea4f 0b45 	mov.w	fp, r5, lsl #1
 8001b0c:	ea4b 7bd4 	orr.w	fp, fp, r4, lsr #31
 8001b10:	f8cd b068 	str.w	fp, [sp, #104]	; 0x68
        BCe = ROL(Agi, 6);
 8001b14:	9c19      	ldr	r4, [sp, #100]	; 0x64
 8001b16:	9d04      	ldr	r5, [sp, #16]
 8001b18:	ea4f 1b84 	mov.w	fp, r4, lsl #6
 8001b1c:	ea4b 6595 	orr.w	r5, fp, r5, lsr #26
 8001b20:	951c      	str	r5, [sp, #112]	; 0x70
 8001b22:	9d04      	ldr	r5, [sp, #16]
 8001b24:	ea4f 1b85 	mov.w	fp, r5, lsl #6
 8001b28:	ea4b 6594 	orr.w	r5, fp, r4, lsr #26
        BCi = ROL(Ako, 25);
 8001b2c:	9c05      	ldr	r4, [sp, #20]
        BCe = ROL(Agi, 6);
 8001b2e:	9501      	str	r5, [sp, #4]
        BCi = ROL(Ako, 25);
 8001b30:	ea4f 6b44 	mov.w	fp, r4, lsl #25
 8001b34:	9c18      	ldr	r4, [sp, #96]	; 0x60
 8001b36:	ea4b 15d4 	orr.w	r5, fp, r4, lsr #7
 8001b3a:	ea4f 6b44 	mov.w	fp, r4, lsl #25
 8001b3e:	9c05      	ldr	r4, [sp, #20]
 8001b40:	951f      	str	r5, [sp, #124]	; 0x7c
        BCo = ROL(Amu, 8);
 8001b42:	9d14      	ldr	r5, [sp, #80]	; 0x50
        BCi = ROL(Ako, 25);
 8001b44:	ea4b 1bd4 	orr.w	fp, fp, r4, lsr #7
        BCo = ROL(Amu, 8);
 8001b48:	9c12      	ldr	r4, [sp, #72]	; 0x48
        BCi = ROL(Ako, 25);
 8001b4a:	f8cd b074 	str.w	fp, [sp, #116]	; 0x74
        BCo = ROL(Amu, 8);
 8001b4e:	ea4f 2b05 	mov.w	fp, r5, lsl #8
 8001b52:	ea4b 6b14 	orr.w	fp, fp, r4, lsr #24
 8001b56:	f8cd b08c 	str.w	fp, [sp, #140]	; 0x8c
 8001b5a:	ea4f 2b04 	mov.w	fp, r4, lsl #8
 8001b5e:	ea4b 6b15 	orr.w	fp, fp, r5, lsr #24
        BCu = ROL(Asa, 18);
 8001b62:	9d33      	ldr	r5, [sp, #204]	; 0xcc
 8001b64:	9c32      	ldr	r4, [sp, #200]	; 0xc8
        BCo = ROL(Amu, 8);
 8001b66:	f8cd b078 	str.w	fp, [sp, #120]	; 0x78
        BCu = ROL(Asa, 18);
 8001b6a:	ea4f 4b85 	mov.w	fp, r5, lsl #18
 8001b6e:	ea4b 3b94 	orr.w	fp, fp, r4, lsr #14
 8001b72:	f8cd b064 	str.w	fp, [sp, #100]	; 0x64
 8001b76:	ea4f 4b84 	mov.w	fp, r4, lsl #18
        Eba ^= KeccakF_RoundConstants[round];
 8001b7a:	9c07      	ldr	r4, [sp, #28]
        BCu = ROL(Asa, 18);
 8001b7c:	ea4b 3595 	orr.w	r5, fp, r5, lsr #14
        Eba = BCa ^ ((~BCe) & BCi);
 8001b80:	ea2a 0b0e 	bic.w	fp, sl, lr
        Eba ^= KeccakF_RoundConstants[round];
 8001b84:	ea84 040b 	eor.w	r4, r4, fp
        BCu = ROL(Asa, 18);
 8001b88:	9518      	str	r5, [sp, #96]	; 0x60
        Eba = BCa ^ ((~BCe) & BCi);
 8001b8a:	f8dd b00c 	ldr.w	fp, [sp, #12]
 8001b8e:	9d06      	ldr	r5, [sp, #24]
        Eba ^= KeccakF_RoundConstants[round];
 8001b90:	9404      	str	r4, [sp, #16]
 8001b92:	9c08      	ldr	r4, [sp, #32]
        Eba = BCa ^ ((~BCe) & BCi);
 8001b94:	ea25 0b0b 	bic.w	fp, r5, fp
        Eba ^= KeccakF_RoundConstants[round];
 8001b98:	ea84 040b 	eor.w	r4, r4, fp
        Ebe = BCe ^ ((~BCi) & BCo);
 8001b9c:	ea20 0b0a 	bic.w	fp, r0, sl
        Eba ^= KeccakF_RoundConstants[round];
 8001ba0:	9405      	str	r4, [sp, #20]
        Ebe = BCe ^ ((~BCi) & BCo);
 8001ba2:	ea8b 040e 	eor.w	r4, fp, lr
        Ebu = BCu ^ ((~BCa) & BCe);
 8001ba6:	f8dd b008 	ldr.w	fp, [sp, #8]
        Ebe = BCe ^ ((~BCi) & BCo);
 8001baa:	9406      	str	r4, [sp, #24]
        Ebu = BCu ^ ((~BCa) & BCe);
 8001bac:	ea2e 0e0b 	bic.w	lr, lr, fp
        Ebo = BCo ^ ((~BCu) & BCa);
 8001bb0:	ea2b 0b06 	bic.w	fp, fp, r6
 8001bb4:	ea8b 0400 	eor.w	r4, fp, r0
        Ebi = BCi ^ ((~BCo) & BCu);
 8001bb8:	ea26 0000 	bic.w	r0, r6, r0
        Ebe = BCe ^ ((~BCi) & BCo);
 8001bbc:	f8dd b00c 	ldr.w	fp, [sp, #12]
        Ebo = BCo ^ ((~BCu) & BCa);
 8001bc0:	940a      	str	r4, [sp, #40]	; 0x28
        Ebi = BCi ^ ((~BCo) & BCu);
 8001bc2:	ea80 000a 	eor.w	r0, r0, sl
 8001bc6:	9008      	str	r0, [sp, #32]
        Ebu = BCu ^ ((~BCa) & BCe);
 8001bc8:	ea8e 0a06 	eor.w	sl, lr, r6
        Ebe = BCe ^ ((~BCi) & BCo);
 8001bcc:	ea2c 0005 	bic.w	r0, ip, r5
        Ebu = BCu ^ ((~BCa) & BCe);
 8001bd0:	f8cd a030 	str.w	sl, [sp, #48]	; 0x30
        Ebe = BCe ^ ((~BCi) & BCo);
 8001bd4:	ea80 0a0b 	eor.w	sl, r0, fp
 8001bd8:	f8cd a01c 	str.w	sl, [sp, #28]
        Ebu = BCu ^ ((~BCa) & BCe);
 8001bdc:	f8dd a0c0 	ldr.w	sl, [sp, #192]	; 0xc0
        Ebo = BCo ^ ((~BCu) & BCa);
 8001be0:	ea2a 0609 	bic.w	r6, sl, r9
        Ebu = BCu ^ ((~BCa) & BCe);
 8001be4:	ea2b 000a 	bic.w	r0, fp, sl
        Ebo = BCo ^ ((~BCu) & BCa);
 8001be8:	ea86 0a0c 	eor.w	sl, r6, ip
 8001bec:	f8cd a02c 	str.w	sl, [sp, #44]	; 0x2c
        Ega = BCa ^ ((~BCe) & BCi);
 8001bf0:	9e0e      	ldr	r6, [sp, #56]	; 0x38
        Eku = BCu ^ ((~BCa) & BCe);
 8001bf2:	f8dd b068 	ldr.w	fp, [sp, #104]	; 0x68
        Ebi = BCi ^ ((~BCo) & BCu);
 8001bf6:	ea29 0c0c 	bic.w	ip, r9, ip
        Ebu = BCu ^ ((~BCa) & BCe);
 8001bfa:	ea80 0909 	eor.w	r9, r0, r9
        Ega = BCa ^ ((~BCe) & BCi);
 8001bfe:	ea26 0002 	bic.w	r0, r6, r2
        Ebu = BCu ^ ((~BCa) & BCe);
 8001c02:	f8cd 9034 	str.w	r9, [sp, #52]	; 0x34
        Ega = BCa ^ ((~BCe) & BCi);
 8001c06:	ea80 0901 	eor.w	r9, r0, r1
        Ebi = BCi ^ ((~BCo) & BCu);
 8001c0a:	ea8c 0a05 	eor.w	sl, ip, r5
        Ega = BCa ^ ((~BCe) & BCi);
 8001c0e:	f8cd 9038 	str.w	r9, [sp, #56]	; 0x38
 8001c12:	e9dd c910 	ldrd	ip, r9, [sp, #64]	; 0x40
 8001c16:	9d0f      	ldr	r5, [sp, #60]	; 0x3c
        Ebi = BCi ^ ((~BCo) & BCu);
 8001c18:	f8cd a024 	str.w	sl, [sp, #36]	; 0x24
        Ega = BCa ^ ((~BCe) & BCi);
 8001c1c:	ea29 000c 	bic.w	r0, r9, ip
 8001c20:	4068      	eors	r0, r5
 8001c22:	900f      	str	r0, [sp, #60]	; 0x3c
        Ege = BCe ^ ((~BCi) & BCo);
 8001c24:	ea27 0006 	bic.w	r0, r7, r6
 8001c28:	4050      	eors	r0, r2
 8001c2a:	9010      	str	r0, [sp, #64]	; 0x40
        Egu = BCu ^ ((~BCa) & BCe);
 8001c2c:	ea22 0201 	bic.w	r2, r2, r1
        Ego = BCo ^ ((~BCu) & BCa);
 8001c30:	9813      	ldr	r0, [sp, #76]	; 0x4c
 8001c32:	ea21 0108 	bic.w	r1, r1, r8
 8001c36:	4079      	eors	r1, r7
        Egi = BCi ^ ((~BCo) & BCu);
 8001c38:	ea28 0707 	bic.w	r7, r8, r7
        Egu = BCu ^ ((~BCa) & BCe);
 8001c3c:	ea82 0808 	eor.w	r8, r2, r8
        Ege = BCe ^ ((~BCi) & BCo);
 8001c40:	ea23 0209 	bic.w	r2, r3, r9
        Ego = BCo ^ ((~BCu) & BCa);
 8001c44:	9114      	str	r1, [sp, #80]	; 0x50
        Egu = BCu ^ ((~BCa) & BCe);
 8001c46:	f8cd 8058 	str.w	r8, [sp, #88]	; 0x58
        Ego = BCo ^ ((~BCu) & BCa);
 8001c4a:	ea25 0100 	bic.w	r1, r5, r0
        Ege = BCe ^ ((~BCi) & BCo);
 8001c4e:	ea82 080c 	eor.w	r8, r2, ip
 8001c52:	f8cd 8044 	str.w	r8, [sp, #68]	; 0x44
        Ego = BCo ^ ((~BCu) & BCa);
 8001c56:	ea81 0803 	eor.w	r8, r1, r3
        Egi = BCi ^ ((~BCo) & BCu);
 8001c5a:	ea20 0303 	bic.w	r3, r0, r3
 8001c5e:	ea83 0909 	eor.w	r9, r3, r9
        Egu = BCu ^ ((~BCa) & BCe);
 8001c62:	4603      	mov	r3, r0
        Eku = BCu ^ ((~BCa) & BCe);
 8001c64:	9801      	ldr	r0, [sp, #4]
        Ego = BCo ^ ((~BCu) & BCa);
 8001c66:	f8cd 8054 	str.w	r8, [sp, #84]	; 0x54
        Eku = BCu ^ ((~BCa) & BCe);
 8001c6a:	f8dd 8060 	ldr.w	r8, [sp, #96]	; 0x60
        Egi = BCi ^ ((~BCo) & BCu);
 8001c6e:	f8cd 904c 	str.w	r9, [sp, #76]	; 0x4c
 8001c72:	ea87 0a06 	eor.w	sl, r7, r6
        Egu = BCu ^ ((~BCa) & BCe);
 8001c76:	ea2c 0205 	bic.w	r2, ip, r5
        Eku = BCu ^ ((~BCa) & BCe);
 8001c7a:	9e1c      	ldr	r6, [sp, #112]	; 0x70
 8001c7c:	9f1b      	ldr	r7, [sp, #108]	; 0x6c
        Egi = BCi ^ ((~BCo) & BCu);
 8001c7e:	f8cd a048 	str.w	sl, [sp, #72]	; 0x48
        Eku = BCu ^ ((~BCa) & BCe);
 8001c82:	ea20 0c0b 	bic.w	ip, r0, fp
 8001c86:	ea8c 0908 	eor.w	r9, ip, r8
 8001c8a:	f8dd c064 	ldr.w	ip, [sp, #100]	; 0x64
        BCa = ROL(Abu, 27);
 8001c8e:	f8dd 8090 	ldr.w	r8, [sp, #144]	; 0x90
        Eku = BCu ^ ((~BCa) & BCe);
 8001c92:	f8cd 9080 	str.w	r9, [sp, #128]	; 0x80
        Egu = BCu ^ ((~BCa) & BCe);
 8001c96:	4053      	eors	r3, r2
        Eku = BCu ^ ((~BCa) & BCe);
 8001c98:	ea26 0207 	bic.w	r2, r6, r7
        Egu = BCu ^ ((~BCa) & BCe);
 8001c9c:	9317      	str	r3, [sp, #92]	; 0x5c
        Eku = BCu ^ ((~BCa) & BCe);
 8001c9e:	ea82 030c 	eor.w	r3, r2, ip
 8001ca2:	9321      	str	r3, [sp, #132]	; 0x84
        BCa = ROL(Abu, 27);
 8001ca4:	9b22      	ldr	r3, [sp, #136]	; 0x88
        BCe = ROL(Aga, 36);
 8001ca6:	f8dd 90d0 	ldr.w	r9, [sp, #208]	; 0xd0
        BCi = ROL(Ake, 10);
 8001caa:	9a36      	ldr	r2, [sp, #216]	; 0xd8
 8001cac:	f8dd a0dc 	ldr.w	sl, [sp, #220]	; 0xdc
        BCa = ROL(Abu, 27);
 8001cb0:	06d9      	lsls	r1, r3, #27
 8001cb2:	ea4f 6ec8 	mov.w	lr, r8, lsl #27
 8001cb6:	ea4e 1e53 	orr.w	lr, lr, r3, lsr #5
 8001cba:	ea41 1558 	orr.w	r5, r1, r8, lsr #5
        BCe = ROL(Aga, 36);
 8001cbe:	9b35      	ldr	r3, [sp, #212]	; 0xd4
        BCa = ROL(Abu, 27);
 8001cc0:	9522      	str	r5, [sp, #136]	; 0x88
        BCe = ROL(Aga, 36);
 8001cc2:	ea4f 7819 	mov.w	r8, r9, lsr #28
        BCi = ROL(Ake, 10);
 8001cc6:	0295      	lsls	r5, r2, #10
        BCe = ROL(Aga, 36);
 8001cc8:	ea48 1803 	orr.w	r8, r8, r3, lsl #4
        BCi = ROL(Ake, 10);
 8001ccc:	ea45 519a 	orr.w	r1, r5, sl, lsr #22
        BCe = ROL(Aga, 36);
 8001cd0:	0f1b      	lsrs	r3, r3, #28
        BCi = ROL(Ake, 10);
 8001cd2:	9102      	str	r1, [sp, #8]
        BCe = ROL(Aga, 36);
 8001cd4:	ea43 1309 	orr.w	r3, r3, r9, lsl #4
        BCi = ROL(Ake, 10);
 8001cd8:	ea4f 298a 	mov.w	r9, sl, lsl #10
        BCo = ROL(Ami, 15);
 8001cdc:	f8dd a0a4 	ldr.w	sl, [sp, #164]	; 0xa4
        BCu = ROL(Aso, 56);
 8001ce0:	9d28      	ldr	r5, [sp, #160]	; 0xa0
 8001ce2:	9c2a      	ldr	r4, [sp, #168]	; 0xa8
        BCi = ROL(Ake, 10);
 8001ce4:	ea49 5992 	orr.w	r9, r9, r2, lsr #22
        BCo = ROL(Ami, 15);
 8001ce8:	9a27      	ldr	r2, [sp, #156]	; 0x9c
 8001cea:	ea4f 3cca 	mov.w	ip, sl, lsl #15
 8001cee:	ea4c 4c52 	orr.w	ip, ip, r2, lsr #17
 8001cf2:	03d2      	lsls	r2, r2, #15
 8001cf4:	ea42 425a 	orr.w	r2, r2, sl, lsr #17
        BCu = ROL(Aso, 56);
 8001cf8:	ea4f 2a15 	mov.w	sl, r5, lsr #8
 8001cfc:	ea4a 6a04 	orr.w	sl, sl, r4, lsl #24
 8001d00:	0a24      	lsrs	r4, r4, #8
 8001d02:	ea44 6405 	orr.w	r4, r4, r5, lsl #24
        Eka = BCa ^ ((~BCe) & BCi);
 8001d06:	9d1d      	ldr	r5, [sp, #116]	; 0x74
 8001d08:	ea25 0000 	bic.w	r0, r5, r0
 8001d0c:	ea80 010b 	eor.w	r1, r0, fp
 8001d10:	911a      	str	r1, [sp, #104]	; 0x68
        Eko = BCo ^ ((~BCu) & BCa);
 8001d12:	9918      	ldr	r1, [sp, #96]	; 0x60
 8001d14:	ea2b 0001 	bic.w	r0, fp, r1
        Eki = BCi ^ ((~BCo) & BCu);
 8001d18:	468b      	mov	fp, r1
 8001d1a:	991e      	ldr	r1, [sp, #120]	; 0x78
 8001d1c:	ea2b 0b01 	bic.w	fp, fp, r1
 8001d20:	ea8b 0b05 	eor.w	fp, fp, r5
 8001d24:	f8cd b070 	str.w	fp, [sp, #112]	; 0x70
        Eke = BCe ^ ((~BCi) & BCo);
 8001d28:	ea21 0b05 	bic.w	fp, r1, r5
 8001d2c:	9d01      	ldr	r5, [sp, #4]
 8001d2e:	ea8b 0505 	eor.w	r5, fp, r5
 8001d32:	951b      	str	r5, [sp, #108]	; 0x6c
        Eka = BCa ^ ((~BCe) & BCi);
 8001d34:	9d1f      	ldr	r5, [sp, #124]	; 0x7c
        Eko = BCo ^ ((~BCu) & BCa);
 8001d36:	ea80 0b01 	eor.w	fp, r0, r1
        Eka = BCa ^ ((~BCe) & BCi);
 8001d3a:	ea25 0006 	bic.w	r0, r5, r6
        Eko = BCo ^ ((~BCu) & BCa);
 8001d3e:	f8cd b078 	str.w	fp, [sp, #120]	; 0x78
        Eka = BCa ^ ((~BCe) & BCi);
 8001d42:	46bb      	mov	fp, r7
 8001d44:	4047      	eors	r7, r0
        Eko = BCo ^ ((~BCu) & BCa);
 8001d46:	9919      	ldr	r1, [sp, #100]	; 0x64
        Eka = BCa ^ ((~BCe) & BCi);
 8001d48:	9718      	str	r7, [sp, #96]	; 0x60
        Eki = BCi ^ ((~BCo) & BCu);
 8001d4a:	9f23      	ldr	r7, [sp, #140]	; 0x8c
        Eko = BCo ^ ((~BCu) & BCa);
 8001d4c:	ea2b 0001 	bic.w	r0, fp, r1
        Eki = BCi ^ ((~BCo) & BCu);
 8001d50:	ea21 0b07 	bic.w	fp, r1, r7
 8001d54:	ea8b 0b05 	eor.w	fp, fp, r5
 8001d58:	f8cd b074 	str.w	fp, [sp, #116]	; 0x74
        Eke = BCe ^ ((~BCi) & BCo);
 8001d5c:	ea27 0b05 	bic.w	fp, r7, r5
 8001d60:	ea8b 0506 	eor.w	r5, fp, r6
        BCa = ROL(Abi, 62);
 8001d64:	9e38      	ldr	r6, [sp, #224]	; 0xe0
        Eke = BCe ^ ((~BCi) & BCo);
 8001d66:	9519      	str	r5, [sp, #100]	; 0x64
        Eko = BCo ^ ((~BCu) & BCa);
 8001d68:	ea80 0507 	eor.w	r5, r0, r7
        BCa = ROL(Abi, 62);
 8001d6c:	9f39      	ldr	r7, [sp, #228]	; 0xe4
        BCe = ROL(Ago, 55);
 8001d6e:	992b      	ldr	r1, [sp, #172]	; 0xac
        Eko = BCo ^ ((~BCu) & BCa);
 8001d70:	951f      	str	r5, [sp, #124]	; 0x7c
        BCa = ROL(Abi, 62);
 8001d72:	08b0      	lsrs	r0, r6, #2
 8001d74:	ea40 7587 	orr.w	r5, r0, r7, lsl #30
 8001d78:	08b8      	lsrs	r0, r7, #2
 8001d7a:	ea40 7b86 	orr.w	fp, r0, r6, lsl #30
        BCe = ROL(Ago, 55);
 8001d7e:	983a      	ldr	r0, [sp, #232]	; 0xe8
        BCa = ROL(Abi, 62);
 8001d80:	f8cd b0a4 	str.w	fp, [sp, #164]	; 0xa4
        BCe = ROL(Ago, 55);
 8001d84:	ea4f 2b51 	mov.w	fp, r1, lsr #9
 8001d88:	ea4b 57c0 	orr.w	r7, fp, r0, lsl #23
 8001d8c:	972b      	str	r7, [sp, #172]	; 0xac
        BCi = ROL(Aku, 39);
 8001d8e:	9f25      	ldr	r7, [sp, #148]	; 0x94
        BCa = ROL(Abi, 62);
 8001d90:	952d      	str	r5, [sp, #180]	; 0xb4
        BCi = ROL(Aku, 39);
 8001d92:	9d26      	ldr	r5, [sp, #152]	; 0x98
        BCe = ROL(Ago, 55);
 8001d94:	0a46      	lsrs	r6, r0, #9
        BCi = ROL(Aku, 39);
 8001d96:	0e78      	lsrs	r0, r7, #25
        BCe = ROL(Ago, 55);
 8001d98:	ea46 56c1 	orr.w	r6, r6, r1, lsl #23
        BCi = ROL(Aku, 39);
 8001d9c:	ea40 11c5 	orr.w	r1, r0, r5, lsl #7
 8001da0:	0e68      	lsrs	r0, r5, #25
 8001da2:	ea40 17c7 	orr.w	r7, r0, r7, lsl #7
 8001da6:	912e      	str	r1, [sp, #184]	; 0xb8
 8001da8:	9701      	str	r7, [sp, #4]
        BCo = ROL(Ama, 41);
 8001daa:	993b      	ldr	r1, [sp, #236]	; 0xec
        BCe = ROL(Ago, 55);
 8001dac:	962a      	str	r6, [sp, #168]	; 0xa8
        BCo = ROL(Ama, 41);
 8001dae:	9e3c      	ldr	r6, [sp, #240]	; 0xf0
        Ema = BCa ^ ((~BCe) & BCi);
 8001db0:	9d22      	ldr	r5, [sp, #136]	; 0x88
        BCo = ROL(Ama, 41);
 8001db2:	0df0      	lsrs	r0, r6, #23
 8001db4:	ea40 2041 	orr.w	r0, r0, r1, lsl #9
 8001db8:	0dcf      	lsrs	r7, r1, #23
        BCu = ROL(Ase, 2);
 8001dba:	993e      	ldr	r1, [sp, #248]	; 0xf8
        BCo = ROL(Ama, 41);
 8001dbc:	902c      	str	r0, [sp, #176]	; 0xb0
 8001dbe:	ea47 2746 	orr.w	r7, r7, r6, lsl #9
        BCu = ROL(Ase, 2);
 8001dc2:	9e3d      	ldr	r6, [sp, #244]	; 0xf4
 8001dc4:	0088      	lsls	r0, r1, #2
 8001dc6:	ea40 7b96 	orr.w	fp, r0, r6, lsr #30
 8001dca:	00b0      	lsls	r0, r6, #2
 8001dcc:	ea40 7091 	orr.w	r0, r0, r1, lsr #30
        Ema = BCa ^ ((~BCe) & BCi);
 8001dd0:	9902      	ldr	r1, [sp, #8]
        BCu = ROL(Ase, 2);
 8001dd2:	f8cd b00c 	str.w	fp, [sp, #12]
        Ema = BCa ^ ((~BCe) & BCi);
 8001dd6:	ea21 0b08 	bic.w	fp, r1, r8
 8001dda:	ea8b 0505 	eor.w	r5, fp, r5
 8001dde:	ea29 0b03 	bic.w	fp, r9, r3
 8001de2:	ea8b 060e 	eor.w	r6, fp, lr
        Eme = BCe ^ ((~BCi) & BCo);
 8001de6:	ea22 0b01 	bic.w	fp, r2, r1
 8001dea:	ea8b 0108 	eor.w	r1, fp, r8
        Emu = BCu ^ ((~BCa) & BCe);
 8001dee:	f8dd b088 	ldr.w	fp, [sp, #136]	; 0x88
        Eme = BCe ^ ((~BCi) & BCo);
 8001df2:	9123      	str	r1, [sp, #140]	; 0x8c
        Emo = BCo ^ ((~BCu) & BCa);
 8001df4:	ea2b 010a 	bic.w	r1, fp, sl
 8001df8:	4051      	eors	r1, r2
 8001dfa:	9125      	str	r1, [sp, #148]	; 0x94
        Emi = BCi ^ ((~BCo) & BCu);
 8001dfc:	9902      	ldr	r1, [sp, #8]
        Esi = BCi ^ ((~BCo) & BCu);
        Eso = BCo ^ ((~BCu) & BCa);
        Esu = BCu ^ ((~BCa) & BCe);

        //    prepareTheta
        BCa = Eba ^ Ega ^ Eka ^ Ema ^ Esa;
 8001dfe:	9630      	str	r6, [sp, #192]	; 0xc0
        Emi = BCi ^ ((~BCo) & BCu);
 8001e00:	ea2a 0202 	bic.w	r2, sl, r2
        Emu = BCu ^ ((~BCa) & BCe);
 8001e04:	ea28 080b 	bic.w	r8, r8, fp
        Emi = BCi ^ ((~BCo) & BCu);
 8001e08:	404a      	eors	r2, r1
 8001e0a:	9222      	str	r2, [sp, #136]	; 0x88
        Emu = BCu ^ ((~BCa) & BCe);
 8001e0c:	ea88 020a 	eor.w	r2, r8, sl
 8001e10:	9227      	str	r2, [sp, #156]	; 0x9c
        Eme = BCe ^ ((~BCi) & BCo);
 8001e12:	ea2c 0209 	bic.w	r2, ip, r9
 8001e16:	405a      	eors	r2, r3
        Emu = BCu ^ ((~BCa) & BCe);
 8001e18:	ea23 030e 	bic.w	r3, r3, lr
        Emo = BCo ^ ((~BCu) & BCa);
 8001e1c:	ea2e 0e04 	bic.w	lr, lr, r4
 8001e20:	ea8e 0e0c 	eor.w	lr, lr, ip
        Emi = BCi ^ ((~BCo) & BCu);
 8001e24:	ea24 0c0c 	bic.w	ip, r4, ip
 8001e28:	ea8c 0c09 	eor.w	ip, ip, r9
 8001e2c:	f8cd c090 	str.w	ip, [sp, #144]	; 0x90
        Emu = BCu ^ ((~BCa) & BCe);
 8001e30:	ea83 0c04 	eor.w	ip, r3, r4
        BCa = Eba ^ Ega ^ Eka ^ Ema ^ Esa;
 8001e34:	f8dd 9038 	ldr.w	r9, [sp, #56]	; 0x38
        Emu = BCu ^ ((~BCa) & BCe);
 8001e38:	f8cd c0a0 	str.w	ip, [sp, #160]	; 0xa0
        BCa = Eba ^ Ega ^ Eka ^ Ema ^ Esa;
 8001e3c:	f8dd c010 	ldr.w	ip, [sp, #16]
 8001e40:	f8dd 8014 	ldr.w	r8, [sp, #20]
 8001e44:	9b0f      	ldr	r3, [sp, #60]	; 0x3c
        Emo = BCo ^ ((~BCu) & BCa);
 8001e46:	f8cd e098 	str.w	lr, [sp, #152]	; 0x98
        Eme = BCe ^ ((~BCi) & BCo);
 8001e4a:	4693      	mov	fp, r2
        BCa = Eba ^ Ega ^ Eka ^ Ema ^ Esa;
 8001e4c:	ea8c 0909 	eor.w	r9, ip, r9
 8001e50:	9a18      	ldr	r2, [sp, #96]	; 0x60
 8001e52:	f8dd c068 	ldr.w	ip, [sp, #104]	; 0x68
        BCe = Ebe ^ Ege ^ Eke ^ Eme ^ Ese;
 8001e56:	9907      	ldr	r1, [sp, #28]
        BCa = Eba ^ Ega ^ Eka ^ Ema ^ Esa;
 8001e58:	952f      	str	r5, [sp, #188]	; 0xbc
 8001e5a:	ea88 0e03 	eor.w	lr, r8, r3
 8001e5e:	ea89 090c 	eor.w	r9, r9, ip
 8001e62:	ea8e 0e02 	eor.w	lr, lr, r2
        BCe = Ebe ^ Ege ^ Eke ^ Eme ^ Ese;
 8001e66:	f8dd c018 	ldr.w	ip, [sp, #24]
 8001e6a:	9a10      	ldr	r2, [sp, #64]	; 0x40
 8001e6c:	9b1b      	ldr	r3, [sp, #108]	; 0x6c
 8001e6e:	f8cd b0c4 	str.w	fp, [sp, #196]	; 0xc4
        BCa = Eba ^ Ega ^ Eka ^ Ema ^ Esa;
 8001e72:	ea8e 0e06 	eor.w	lr, lr, r6
        BCe = Ebe ^ Ege ^ Eke ^ Eme ^ Ese;
 8001e76:	9e11      	ldr	r6, [sp, #68]	; 0x44
        BCa = Eba ^ Ega ^ Eka ^ Ema ^ Esa;
 8001e78:	ea89 0905 	eor.w	r9, r9, r5
        BCe = Ebe ^ Ege ^ Eke ^ Eme ^ Ese;
 8001e7c:	ea8c 0502 	eor.w	r5, ip, r2
 8001e80:	405d      	eors	r5, r3
 8001e82:	ea81 0306 	eor.w	r3, r1, r6
 8001e86:	9919      	ldr	r1, [sp, #100]	; 0x64
 8001e88:	9a23      	ldr	r2, [sp, #140]	; 0x8c
 8001e8a:	404b      	eors	r3, r1
 8001e8c:	ea83 040b 	eor.w	r4, r3, fp
 8001e90:	9434      	str	r4, [sp, #208]	; 0xd0
        BCi = Ebi ^ Egi ^ Eki ^ Emi ^ Esi;
 8001e92:	f8dd 8020 	ldr.w	r8, [sp, #32]
 8001e96:	f8dd b048 	ldr.w	fp, [sp, #72]	; 0x48
 8001e9a:	9e09      	ldr	r6, [sp, #36]	; 0x24
 8001e9c:	f8dd a074 	ldr.w	sl, [sp, #116]	; 0x74
 8001ea0:	9c1c      	ldr	r4, [sp, #112]	; 0x70
 8001ea2:	9b22      	ldr	r3, [sp, #136]	; 0x88
 8001ea4:	ea88 010b 	eor.w	r1, r8, fp
 8001ea8:	f8dd b04c 	ldr.w	fp, [sp, #76]	; 0x4c
        BCo = Ebo ^ Ego ^ Eko ^ Emo ^ Eso;
 8001eac:	f8dd 8050 	ldr.w	r8, [sp, #80]	; 0x50
        BCe = Ebe ^ Ege ^ Eke ^ Eme ^ Ese;
 8001eb0:	4055      	eors	r5, r2
        BCi = Ebi ^ Egi ^ Eki ^ Emi ^ Esi;
 8001eb2:	ea86 0b0b 	eor.w	fp, r6, fp
 8001eb6:	9a24      	ldr	r2, [sp, #144]	; 0x90
        BCu = Ebu ^ Egu ^ Eku ^ Emu ^ Esu;
 8001eb8:	9e17      	ldr	r6, [sp, #92]	; 0x5c
        BCi = Ebi ^ Egi ^ Eki ^ Emi ^ Esi;
 8001eba:	ea8b 0b0a 	eor.w	fp, fp, sl
        BCo = Ebo ^ Ego ^ Eko ^ Emo ^ Eso;
 8001ebe:	f8dd a028 	ldr.w	sl, [sp, #40]	; 0x28
        BCi = Ebi ^ Egi ^ Eki ^ Emi ^ Esi;
 8001ec2:	ea8b 0b02 	eor.w	fp, fp, r2
        BCo = Ebo ^ Ego ^ Eko ^ Emo ^ Eso;
 8001ec6:	9a1e      	ldr	r2, [sp, #120]	; 0x78
 8001ec8:	ea8a 0c08 	eor.w	ip, sl, r8
        BCi = Ebi ^ Egi ^ Eki ^ Emi ^ Esi;
 8001ecc:	4061      	eors	r1, r4
        BCo = Ebo ^ Ego ^ Eko ^ Emo ^ Eso;
 8001ece:	9c25      	ldr	r4, [sp, #148]	; 0x94
 8001ed0:	f8dd a054 	ldr.w	sl, [sp, #84]	; 0x54
 8001ed4:	ea8c 0c02 	eor.w	ip, ip, r2
 8001ed8:	9a0b      	ldr	r2, [sp, #44]	; 0x2c
 8001eda:	ea8c 0c04 	eor.w	ip, ip, r4
 8001ede:	9c1f      	ldr	r4, [sp, #124]	; 0x7c
 8001ee0:	ea82 020a 	eor.w	r2, r2, sl
        BCi = Ebi ^ Egi ^ Eki ^ Emi ^ Esi;
 8001ee4:	4059      	eors	r1, r3
        BCu = Ebu ^ Egu ^ Eku ^ Emu ^ Esu;
 8001ee6:	f8dd a058 	ldr.w	sl, [sp, #88]	; 0x58
        BCo = Ebo ^ Ego ^ Eko ^ Emo ^ Eso;
 8001eea:	9b26      	ldr	r3, [sp, #152]	; 0x98
 8001eec:	4062      	eors	r2, r4
        BCu = Ebu ^ Egu ^ Eku ^ Emu ^ Esu;
 8001eee:	9c20      	ldr	r4, [sp, #128]	; 0x80
        BCo = Ebo ^ Ego ^ Eko ^ Emo ^ Eso;
 8001ef0:	405a      	eors	r2, r3
        BCu = Ebu ^ Egu ^ Eku ^ Emu ^ Esu;
 8001ef2:	ea8a 0304 	eor.w	r3, sl, r4
 8001ef6:	9c0c      	ldr	r4, [sp, #48]	; 0x30
 8001ef8:	f8dd a084 	ldr.w	sl, [sp, #132]	; 0x84
 8001efc:	4063      	eors	r3, r4
 8001efe:	9c27      	ldr	r4, [sp, #156]	; 0x9c
 8001f00:	4063      	eors	r3, r4
 8001f02:	ea86 040a 	eor.w	r4, r6, sl
 8001f06:	9e0d      	ldr	r6, [sp, #52]	; 0x34
        Esa = BCa ^ ((~BCe) & BCi);
 8001f08:	f8dd a0a8 	ldr.w	sl, [sp, #168]	; 0xa8
        BCu = Ebu ^ Egu ^ Eku ^ Emu ^ Esu;
 8001f0c:	4074      	eors	r4, r6
 8001f0e:	9e28      	ldr	r6, [sp, #160]	; 0xa0
 8001f10:	4074      	eors	r4, r6
        Esa = BCa ^ ((~BCe) & BCi);
 8001f12:	9e2e      	ldr	r6, [sp, #184]	; 0xb8
 8001f14:	ea26 080a 	bic.w	r8, r6, sl
 8001f18:	f8dd a0b4 	ldr.w	sl, [sp, #180]	; 0xb4
 8001f1c:	ea88 080a 	eor.w	r8, r8, sl
        BCa = Eba ^ Ega ^ Eka ^ Ema ^ Esa;
 8001f20:	f8cd 80c8 	str.w	r8, [sp, #200]	; 0xc8
 8001f24:	ea89 0808 	eor.w	r8, r9, r8
 8001f28:	f8cd 80b4 	str.w	r8, [sp, #180]	; 0xb4
        Esa = BCa ^ ((~BCe) & BCi);
 8001f2c:	f8dd 90ac 	ldr.w	r9, [sp, #172]	; 0xac
 8001f30:	f8dd 8004 	ldr.w	r8, [sp, #4]
 8001f34:	ea28 0909 	bic.w	r9, r8, r9
 8001f38:	f8dd 80a4 	ldr.w	r8, [sp, #164]	; 0xa4
 8001f3c:	ea89 0908 	eor.w	r9, r9, r8
        BCa = Eba ^ Ega ^ Eka ^ Ema ^ Esa;
 8001f40:	ea8e 0e09 	eor.w	lr, lr, r9
 8001f44:	f8cd e0b8 	str.w	lr, [sp, #184]	; 0xb8
        Ese = BCe ^ ((~BCi) & BCo);
 8001f48:	46b0      	mov	r8, r6
 8001f4a:	ea27 0e06 	bic.w	lr, r7, r6
 8001f4e:	9e2a      	ldr	r6, [sp, #168]	; 0xa8
 8001f50:	ea8e 0e06 	eor.w	lr, lr, r6
        Esu = BCu ^ ((~BCa) & BCe);
 8001f54:	ea26 060a 	bic.w	r6, r6, sl
        Eso = BCo ^ ((~BCu) & BCa);
 8001f58:	ea2a 0a00 	bic.w	sl, sl, r0
 8001f5c:	ea8a 0a07 	eor.w	sl, sl, r7
 8001f60:	f8cd a0a8 	str.w	sl, [sp, #168]	; 0xa8
        Esi = BCi ^ ((~BCo) & BCu);
 8001f64:	ea20 0707 	bic.w	r7, r0, r7
        Esu = BCu ^ ((~BCa) & BCe);
 8001f68:	4070      	eors	r0, r6
        Esi = BCi ^ ((~BCo) & BCu);
 8001f6a:	ea87 0a08 	eor.w	sl, r7, r8
        Esu = BCu ^ ((~BCa) & BCe);
 8001f6e:	4607      	mov	r7, r0
        BCo = Ebo ^ Ego ^ Eko ^ Emo ^ Eso;
 8001f70:	982a      	ldr	r0, [sp, #168]	; 0xa8
        BCu = Ebu ^ Egu ^ Eku ^ Emu ^ Esu;
 8001f72:	9733      	str	r7, [sp, #204]	; 0xcc
        BCo = Ebo ^ Ego ^ Eko ^ Emo ^ Eso;
 8001f74:	ea8c 0800 	eor.w	r8, ip, r0
        BCe = Ebe ^ Ege ^ Eke ^ Eme ^ Ese;
 8001f78:	ea85 050e 	eor.w	r5, r5, lr
        Ese = BCe ^ ((~BCi) & BCo);
 8001f7c:	982c      	ldr	r0, [sp, #176]	; 0xb0
 8001f7e:	f8dd c004 	ldr.w	ip, [sp, #4]
        BCe = Ebe ^ Ege ^ Eke ^ Eme ^ Ese;
 8001f82:	9502      	str	r5, [sp, #8]
        BCu = Ebu ^ Egu ^ Eku ^ Emu ^ Esu;
 8001f84:	407b      	eors	r3, r7
        Esu = BCu ^ ((~BCa) & BCe);
 8001f86:	9d29      	ldr	r5, [sp, #164]	; 0xa4
        Ese = BCe ^ ((~BCi) & BCo);
 8001f88:	9f2b      	ldr	r7, [sp, #172]	; 0xac
 8001f8a:	ea20 060c 	bic.w	r6, r0, ip
 8001f8e:	407e      	eors	r6, r7
        Esu = BCu ^ ((~BCa) & BCe);
 8001f90:	ea27 0c05 	bic.w	ip, r7, r5
        Eso = BCo ^ ((~BCu) & BCa);
 8001f94:	9f03      	ldr	r7, [sp, #12]
 8001f96:	ea25 0007 	bic.w	r0, r5, r7
 8001f9a:	9d2c      	ldr	r5, [sp, #176]	; 0xb0
 8001f9c:	4068      	eors	r0, r5
 8001f9e:	9029      	str	r0, [sp, #164]	; 0xa4
        Esi = BCi ^ ((~BCo) & BCu);
 8001fa0:	ea27 0005 	bic.w	r0, r7, r5
 8001fa4:	9f01      	ldr	r7, [sp, #4]
        BCo = Ebo ^ Ego ^ Eko ^ Emo ^ Eso;
 8001fa6:	9d29      	ldr	r5, [sp, #164]	; 0xa4
        Esi = BCi ^ ((~BCo) & BCu);
 8001fa8:	4078      	eors	r0, r7
        Esu = BCu ^ ((~BCa) & BCe);
 8001faa:	9f03      	ldr	r7, [sp, #12]
 8001fac:	ea8c 0707 	eor.w	r7, ip, r7
 8001fb0:	46bc      	mov	ip, r7
        BCe = Ebe ^ Ege ^ Eke ^ Eme ^ Ese;
 8001fb2:	9f34      	ldr	r7, [sp, #208]	; 0xd0
        BCu = Ebu ^ Egu ^ Eku ^ Emu ^ Esu;
 8001fb4:	f8cd c00c 	str.w	ip, [sp, #12]
        BCo = Ebo ^ Ego ^ Eko ^ Emo ^ Eso;
 8001fb8:	406a      	eors	r2, r5
        BCu = Ebu ^ Egu ^ Eku ^ Emu ^ Esu;
 8001fba:	4665      	mov	r5, ip
        BCe = Ebe ^ Ege ^ Eke ^ Eme ^ Ese;
 8001fbc:	4077      	eors	r7, r6
        BCu = Ebu ^ Egu ^ Eku ^ Emu ^ Esu;
 8001fbe:	406c      	eors	r4, r5

        // thetaRhoPiChiIotaPrepareTheta(round+1, E, A)
        Da = BCu ^ ROL(BCe, 1);
 8001fc0:	9d02      	ldr	r5, [sp, #8]
 8001fc2:	ea4f 0c47 	mov.w	ip, r7, lsl #1
 8001fc6:	ea4c 7cd5 	orr.w	ip, ip, r5, lsr #31

        Ebo ^= Do;
        BCa = ROL(Ebo, 28);
        Egu ^= Du;
        BCe = ROL(Egu, 20);
        Eka ^= Da;
 8001fca:	9d18      	ldr	r5, [sp, #96]	; 0x60
        Da = BCu ^ ROL(BCe, 1);
 8001fcc:	ea8c 0c04 	eor.w	ip, ip, r4
        Eka ^= Da;
 8001fd0:	ea85 050c 	eor.w	r5, r5, ip
 8001fd4:	952b      	str	r5, [sp, #172]	; 0xac
        Ako = BCo ^ ((~BCu) & BCa);
        Aku = BCu ^ ((~BCa) & BCe);

        Ebu ^= Du;
        BCa = ROL(Ebu, 27);
        Ega ^= Da;
 8001fd6:	9d0f      	ldr	r5, [sp, #60]	; 0x3c
        Esa ^= Da;
 8001fd8:	ea89 090c 	eor.w	r9, r9, ip
 8001fdc:	f8cd 90d0 	str.w	r9, [sp, #208]	; 0xd0
        Ega ^= Da;
 8001fe0:	ea85 090c 	eor.w	r9, r5, ip
 8001fe4:	f8cd 90d4 	str.w	r9, [sp, #212]	; 0xd4
        BCa = ROL(Ebi, 62);
        Ego ^= Do;
        BCe = ROL(Ego, 55);
        Eku ^= Du;
        BCi = ROL(Eku, 39);
        Ema ^= Da;
 8001fe8:	f8dd 90c0 	ldr.w	r9, [sp, #192]	; 0xc0
        Da = BCu ^ ROL(BCe, 1);
 8001fec:	9d02      	ldr	r5, [sp, #8]
        Ema ^= Da;
 8001fee:	ea89 090c 	eor.w	r9, r9, ip
 8001ff2:	f8cd 90e4 	str.w	r9, [sp, #228]	; 0xe4
        Eba ^= Da;
 8001ff6:	f8dd 9014 	ldr.w	r9, [sp, #20]
 8001ffa:	ea89 0c0c 	eor.w	ip, r9, ip
 8001ffe:	f8cd c03c 	str.w	ip, [sp, #60]	; 0x3c
        Da = BCu ^ ROL(BCe, 1);
 8002002:	ea4f 0c45 	mov.w	ip, r5, lsl #1
        Eka ^= Da;
 8002006:	f8dd 9068 	ldr.w	r9, [sp, #104]	; 0x68
        Da = BCu ^ ROL(BCe, 1);
 800200a:	ea4c 7cd7 	orr.w	ip, ip, r7, lsr #31
 800200e:	ea8c 0c03 	eor.w	ip, ip, r3
        Eka ^= Da;
 8002012:	ea89 090c 	eor.w	r9, r9, ip
 8002016:	f8cd 9060 	str.w	r9, [sp, #96]	; 0x60
        Esa ^= Da;
 800201a:	f8dd 90c8 	ldr.w	r9, [sp, #200]	; 0xc8
 800201e:	ea89 090c 	eor.w	r9, r9, ip
 8002022:	f8cd 90c0 	str.w	r9, [sp, #192]	; 0xc0
        Ega ^= Da;
 8002026:	f8dd 9038 	ldr.w	r9, [sp, #56]	; 0x38
        De = BCa ^ ROL(BCi, 1);
 800202a:	9d2e      	ldr	r5, [sp, #184]	; 0xb8
        Ega ^= Da;
 800202c:	ea89 090c 	eor.w	r9, r9, ip
 8002030:	f8cd 90c8 	str.w	r9, [sp, #200]	; 0xc8
        Ema ^= Da;
 8002034:	f8dd 90bc 	ldr.w	r9, [sp, #188]	; 0xbc
 8002038:	ea89 090c 	eor.w	r9, r9, ip
 800203c:	f8cd 90e0 	str.w	r9, [sp, #224]	; 0xe0
        Eba ^= Da;
 8002040:	f8dd 9010 	ldr.w	r9, [sp, #16]
        BCi = Ebi ^ Egi ^ Eki ^ Emi ^ Esi;
 8002044:	ea8b 0b00 	eor.w	fp, fp, r0
 8002048:	ea81 010a 	eor.w	r1, r1, sl
        Eba ^= Da;
 800204c:	ea89 090c 	eor.w	r9, r9, ip
        De = BCa ^ ROL(BCi, 1);
 8002050:	ea4f 0c4b 	mov.w	ip, fp, lsl #1
 8002054:	ea4c 7cd1 	orr.w	ip, ip, r1, lsr #31
 8002058:	ea8c 0c05 	eor.w	ip, ip, r5
        Ege ^= De;
 800205c:	9d11      	ldr	r5, [sp, #68]	; 0x44
 800205e:	ea85 050c 	eor.w	r5, r5, ip
 8002062:	9504      	str	r5, [sp, #16]
        Eme ^= De;
 8002064:	9d31      	ldr	r5, [sp, #196]	; 0xc4
 8002066:	ea85 050c 	eor.w	r5, r5, ip
 800206a:	951a      	str	r5, [sp, #104]	; 0x68
        Ebe ^= De;
 800206c:	9d07      	ldr	r5, [sp, #28]
 800206e:	ea85 050c 	eor.w	r5, r5, ip
 8002072:	952c      	str	r5, [sp, #176]	; 0xb0
        Eke ^= De;
 8002074:	9d19      	ldr	r5, [sp, #100]	; 0x64
        BCo = ROL(Ema, 41);
        Ese ^= De;
 8002076:	ea86 060c 	eor.w	r6, r6, ip
        Eke ^= De;
 800207a:	ea85 050c 	eor.w	r5, r5, ip
 800207e:	9531      	str	r5, [sp, #196]	; 0xc4
        Ese ^= De;
 8002080:	963b      	str	r6, [sp, #236]	; 0xec
        De = BCa ^ ROL(BCi, 1);
 8002082:	9d2d      	ldr	r5, [sp, #180]	; 0xb4
 8002084:	004e      	lsls	r6, r1, #1
 8002086:	ea46 76db 	orr.w	r6, r6, fp, lsr #31
 800208a:	406e      	eors	r6, r5
        Ege ^= De;
 800208c:	9d10      	ldr	r5, [sp, #64]	; 0x40
 800208e:	ea85 0c06 	eor.w	ip, r5, r6
 8002092:	f8cd c004 	str.w	ip, [sp, #4]
        Eme ^= De;
 8002096:	f8dd c08c 	ldr.w	ip, [sp, #140]	; 0x8c
        Egi ^= Di;
 800209a:	9d13      	ldr	r5, [sp, #76]	; 0x4c
        Eme ^= De;
 800209c:	ea8c 0c06 	eor.w	ip, ip, r6
 80020a0:	f8cd c040 	str.w	ip, [sp, #64]	; 0x40
        Ebe ^= De;
 80020a4:	f8dd c018 	ldr.w	ip, [sp, #24]
 80020a8:	ea8c 0c06 	eor.w	ip, ip, r6
 80020ac:	f8cd c08c 	str.w	ip, [sp, #140]	; 0x8c
        Eke ^= De;
 80020b0:	f8dd c06c 	ldr.w	ip, [sp, #108]	; 0x6c
 80020b4:	ea8c 0c06 	eor.w	ip, ip, r6
 80020b8:	f8cd c0bc 	str.w	ip, [sp, #188]	; 0xbc
        Ese ^= De;
 80020bc:	ea8e 0c06 	eor.w	ip, lr, r6
 80020c0:	f8cd c0e8 	str.w	ip, [sp, #232]	; 0xe8
        Di = BCe ^ ROL(BCo, 1);
 80020c4:	ea4f 0c42 	mov.w	ip, r2, lsl #1
 80020c8:	ea4c 7cd8 	orr.w	ip, ip, r8, lsr #31
 80020cc:	ea8c 0707 	eor.w	r7, ip, r7
        Esi ^= Di;
 80020d0:	4078      	eors	r0, r7
        Ebi ^= Di;
 80020d2:	f8dd c024 	ldr.w	ip, [sp, #36]	; 0x24
        Eki ^= Di;
 80020d6:	f8dd e074 	ldr.w	lr, [sp, #116]	; 0x74
        Esi ^= Di;
 80020da:	9019      	str	r0, [sp, #100]	; 0x64
        Egi ^= Di;
 80020dc:	ea85 0007 	eor.w	r0, r5, r7
        Emi ^= Di;
 80020e0:	9d24      	ldr	r5, [sp, #144]	; 0x90
        Egi ^= Di;
 80020e2:	901b      	str	r0, [sp, #108]	; 0x6c
        Eki ^= Di;
 80020e4:	ea8e 0e07 	eor.w	lr, lr, r7
        Emi ^= Di;
 80020e8:	407d      	eors	r5, r7
        Ebi ^= Di;
 80020ea:	ea8c 0707 	eor.w	r7, ip, r7
        Emi ^= Di;
 80020ee:	9524      	str	r5, [sp, #144]	; 0x90
        Di = BCe ^ ROL(BCo, 1);
 80020f0:	ea4f 0048 	mov.w	r0, r8, lsl #1
        Ebi ^= Di;
 80020f4:	9737      	str	r7, [sp, #220]	; 0xdc
        Di = BCe ^ ROL(BCo, 1);
 80020f6:	9d02      	ldr	r5, [sp, #8]
        Eki ^= Di;
 80020f8:	9f1c      	ldr	r7, [sp, #112]	; 0x70
        Ebi ^= Di;
 80020fa:	f8dd c020 	ldr.w	ip, [sp, #32]
        Di = BCe ^ ROL(BCo, 1);
 80020fe:	ea40 70d2 	orr.w	r0, r0, r2, lsr #31
 8002102:	4045      	eors	r5, r0
        Eki ^= Di;
 8002104:	406f      	eors	r7, r5
        Do = BCi ^ ROL(BCu, 1);
 8002106:	0060      	lsls	r0, r4, #1
 8002108:	ea40 70d3 	orr.w	r0, r0, r3, lsr #31
        Eki ^= Di;
 800210c:	9706      	str	r7, [sp, #24]
        Do = BCi ^ ROL(BCu, 1);
 800210e:	005b      	lsls	r3, r3, #1
        Esi ^= Di;
 8002110:	ea8a 0705 	eor.w	r7, sl, r5
 8002114:	9713      	str	r7, [sp, #76]	; 0x4c
        Emi ^= Di;
 8002116:	f8dd a088 	ldr.w	sl, [sp, #136]	; 0x88
        Egi ^= Di;
 800211a:	9f12      	ldr	r7, [sp, #72]	; 0x48
        Do = BCi ^ ROL(BCu, 1);
 800211c:	ea43 74d4 	orr.w	r4, r3, r4, lsr #31
        Ebo ^= Do;
 8002120:	9b0a      	ldr	r3, [sp, #40]	; 0x28
        Do = BCi ^ ROL(BCu, 1);
 8002122:	404c      	eors	r4, r1
        Emo ^= Do;
 8002124:	9925      	ldr	r1, [sp, #148]	; 0x94
        Ebi ^= Di;
 8002126:	ea8c 0605 	eor.w	r6, ip, r5
        Egi ^= Di;
 800212a:	406f      	eors	r7, r5
        Emi ^= Di;
 800212c:	ea8a 0a05 	eor.w	sl, sl, r5
        Ebo ^= Do;
 8002130:	ea83 0504 	eor.w	r5, r3, r4
 8002134:	9b0b      	ldr	r3, [sp, #44]	; 0x2c
        Eko ^= Do;
 8002136:	f8dd c078 	ldr.w	ip, [sp, #120]	; 0x78
        Ebi ^= Di;
 800213a:	9636      	str	r6, [sp, #216]	; 0xd8
        Do = BCi ^ ROL(BCu, 1);
 800213c:	ea80 0b0b 	eor.w	fp, r0, fp
        Emo ^= Do;
 8002140:	4061      	eors	r1, r4
        Ebo ^= Do;
 8002142:	ea83 030b 	eor.w	r3, r3, fp
        Emo ^= Do;
 8002146:	9107      	str	r1, [sp, #28]
 8002148:	9926      	ldr	r1, [sp, #152]	; 0x98
        Ebo ^= Do;
 800214a:	930b      	str	r3, [sp, #44]	; 0x2c
        Eko ^= Do;
 800214c:	9b1f      	ldr	r3, [sp, #124]	; 0x7c
        Emo ^= Do;
 800214e:	ea81 000b 	eor.w	r0, r1, fp
        Eko ^= Do;
 8002152:	ea8c 0104 	eor.w	r1, ip, r4
        Eso ^= Do;
 8002156:	f8dd c0a8 	ldr.w	ip, [sp, #168]	; 0xa8
        Eko ^= Do;
 800215a:	911c      	str	r1, [sp, #112]	; 0x70
 800215c:	ea83 030b 	eor.w	r3, r3, fp
 8002160:	931d      	str	r3, [sp, #116]	; 0x74
        Eso ^= Do;
 8002162:	ea8c 0304 	eor.w	r3, ip, r4
 8002166:	9325      	str	r3, [sp, #148]	; 0x94
        Ego ^= Do;
 8002168:	9b14      	ldr	r3, [sp, #80]	; 0x50
 800216a:	ea83 0104 	eor.w	r1, r3, r4
        Eso ^= Do;
 800216e:	9c29      	ldr	r4, [sp, #164]	; 0xa4
        Ego ^= Do;
 8002170:	912a      	str	r1, [sp, #168]	; 0xa8
        Eso ^= Do;
 8002172:	ea84 030b 	eor.w	r3, r4, fp
 8002176:	9326      	str	r3, [sp, #152]	; 0x98
        Ego ^= Do;
 8002178:	9b15      	ldr	r3, [sp, #84]	; 0x54
        Du = BCo ^ ROL(BCa, 1);
 800217a:	9c2e      	ldr	r4, [sp, #184]	; 0xb8
        Ego ^= Do;
 800217c:	ea83 0b0b 	eor.w	fp, r3, fp
 8002180:	f8cd b0a4 	str.w	fp, [sp, #164]	; 0xa4
        Du = BCo ^ ROL(BCa, 1);
 8002184:	f8dd b0b4 	ldr.w	fp, [sp, #180]	; 0xb4
 8002188:	ea4f 0c4b 	mov.w	ip, fp, lsl #1
 800218c:	ea4c 7cd4 	orr.w	ip, ip, r4, lsr #31
 8002190:	ea8c 0c08 	eor.w	ip, ip, r8
 8002194:	0063      	lsls	r3, r4, #1
        Egu ^= Du;
 8002196:	f8dd 8058 	ldr.w	r8, [sp, #88]	; 0x58
        Du = BCo ^ ROL(BCa, 1);
 800219a:	ea43 73db 	orr.w	r3, r3, fp, lsr #31
 800219e:	405a      	eors	r2, r3
        Esu ^= Du;
 80021a0:	f8dd b0cc 	ldr.w	fp, [sp, #204]	; 0xcc
        Egu ^= Du;
 80021a4:	ea88 030c 	eor.w	r3, r8, ip
 80021a8:	f8dd 805c 	ldr.w	r8, [sp, #92]	; 0x5c
        Esu ^= Du;
 80021ac:	ea8b 060c 	eor.w	r6, fp, ip
        Egu ^= Du;
 80021b0:	ea88 0402 	eor.w	r4, r8, r2
        Esu ^= Du;
 80021b4:	f8dd b00c 	ldr.w	fp, [sp, #12]
        Emu ^= Du;
 80021b8:	f8dd 809c 	ldr.w	r8, [sp, #156]	; 0x9c
 80021bc:	9928      	ldr	r1, [sp, #160]	; 0xa0
        Aba ^= KeccakF_RoundConstants[round + 1];
 80021be:	f8cd 9014 	str.w	r9, [sp, #20]
        Emu ^= Du;
 80021c2:	4051      	eors	r1, r2
 80021c4:	911e      	str	r1, [sp, #120]	; 0x78
        Ebu ^= Du;
 80021c6:	990c      	ldr	r1, [sp, #48]	; 0x30
 80021c8:	ea81 010c 	eor.w	r1, r1, ip
 80021cc:	911f      	str	r1, [sp, #124]	; 0x7c
        Eku ^= Du;
 80021ce:	9920      	ldr	r1, [sp, #128]	; 0x80
 80021d0:	ea81 010c 	eor.w	r1, r1, ip
        Emu ^= Du;
 80021d4:	ea88 080c 	eor.w	r8, r8, ip
        Eku ^= Du;
 80021d8:	912d      	str	r1, [sp, #180]	; 0xb4
        Ebu ^= Du;
 80021da:	f8dd c034 	ldr.w	ip, [sp, #52]	; 0x34
        Eku ^= Du;
 80021de:	9921      	ldr	r1, [sp, #132]	; 0x84
        Esu ^= Du;
 80021e0:	ea8b 0b02 	eor.w	fp, fp, r2
        Ebu ^= Du;
 80021e4:	ea8c 0c02 	eor.w	ip, ip, r2
        Eku ^= Du;
 80021e8:	4051      	eors	r1, r2
        Aba ^= KeccakF_RoundConstants[round + 1];
 80021ea:	9a00      	ldr	r2, [sp, #0]
        Eku ^= Du;
 80021ec:	912e      	str	r1, [sp, #184]	; 0xb8
        Aba ^= KeccakF_RoundConstants[round + 1];
 80021ee:	6892      	ldr	r2, [r2, #8]
 80021f0:	ea89 0102 	eor.w	r1, r9, r2
 80021f4:	f8dd 9000 	ldr.w	r9, [sp]
 80021f8:	9109      	str	r1, [sp, #36]	; 0x24
 80021fa:	f8d9 200c 	ldr.w	r2, [r9, #12]
    for (round = 0; round < NROUNDS; round += 2) {
 80021fe:	f109 0110 	add.w	r1, r9, #16
        Aba ^= KeccakF_RoundConstants[round + 1];
 8002202:	f8dd 903c 	ldr.w	r9, [sp, #60]	; 0x3c
    for (round = 0; round < NROUNDS; round += 2) {
 8002206:	9100      	str	r1, [sp, #0]
        Aba ^= KeccakF_RoundConstants[round + 1];
 8002208:	ea89 0202 	eor.w	r2, r9, r2
 800220c:	9211      	str	r2, [sp, #68]	; 0x44
        BCe = ROL(Ege, 44);
 800220e:	9a01      	ldr	r2, [sp, #4]
 8002210:	9904      	ldr	r1, [sp, #16]
 8002212:	0d12      	lsrs	r2, r2, #20
 8002214:	ea42 3901 	orr.w	r9, r2, r1, lsl #12
 8002218:	0d0a      	lsrs	r2, r1, #20
 800221a:	9901      	ldr	r1, [sp, #4]
 800221c:	f8cd 9008 	str.w	r9, [sp, #8]
 8002220:	ea42 3901 	orr.w	r9, r2, r1, lsl #12
        BCi = ROL(Eki, 43);
 8002224:	9906      	ldr	r1, [sp, #24]
        BCe = ROL(Ege, 44);
 8002226:	f8cd 9010 	str.w	r9, [sp, #16]
        BCi = ROL(Eki, 43);
 800222a:	0d4a      	lsrs	r2, r1, #21
 800222c:	ea42 29ce 	orr.w	r9, r2, lr, lsl #11
 8002230:	ea4f 5e5e 	mov.w	lr, lr, lsr #21
 8002234:	ea4e 2ec1 	orr.w	lr, lr, r1, lsl #11
        BCo = ROL(Emo, 21);
 8002238:	9907      	ldr	r1, [sp, #28]
        BCi = ROL(Eki, 43);
 800223a:	f8cd e018 	str.w	lr, [sp, #24]
        BCo = ROL(Emo, 21);
 800223e:	0542      	lsls	r2, r0, #21
 8002240:	ea42 2ed1 	orr.w	lr, r2, r1, lsr #11
 8002244:	0549      	lsls	r1, r1, #21
 8002246:	ea41 21d0 	orr.w	r1, r1, r0, lsr #11
        BCa = ROL(Ebo, 28);
 800224a:	980b      	ldr	r0, [sp, #44]	; 0x2c
        BCo = ROL(Emo, 21);
 800224c:	f8cd e020 	str.w	lr, [sp, #32]
        BCu = ROL(Esu, 14);
 8002250:	ea4f 328b 	mov.w	r2, fp, lsl #14
 8002254:	ea42 4e96 	orr.w	lr, r2, r6, lsr #18
        BCa = ROL(Ebo, 28);
 8002258:	0702      	lsls	r2, r0, #28
        BCu = ROL(Esu, 14);
 800225a:	f8cd e028 	str.w	lr, [sp, #40]	; 0x28
        BCa = ROL(Ebo, 28);
 800225e:	ea42 1e15 	orr.w	lr, r2, r5, lsr #4
 8002262:	072d      	lsls	r5, r5, #28
 8002264:	ea45 1510 	orr.w	r5, r5, r0, lsr #4
        BCe = ROL(Egu, 20);
 8002268:	0522      	lsls	r2, r4, #20
        BCi = ROL(Eki, 43);
 800226a:	f8cd 900c 	str.w	r9, [sp, #12]
        BCa = ROL(Ebo, 28);
 800226e:	f8cd e030 	str.w	lr, [sp, #48]	; 0x30
 8002272:	950b      	str	r5, [sp, #44]	; 0x2c
        BCe = ROL(Egu, 20);
 8002274:	ea42 3513 	orr.w	r5, r2, r3, lsr #12
        BCi = ROL(Eka, 3);
 8002278:	9a2b      	ldr	r2, [sp, #172]	; 0xac
 800227a:	f8dd e060 	ldr.w	lr, [sp, #96]	; 0x60
        BCo = ROL(Eme, 45);
 800227e:	9810      	ldr	r0, [sp, #64]	; 0x40
        BCe = ROL(Egu, 20);
 8002280:	950d      	str	r5, [sp, #52]	; 0x34
 8002282:	051b      	lsls	r3, r3, #20
 8002284:	ea43 3414 	orr.w	r4, r3, r4, lsr #12
        BCi = ROL(Eka, 3);
 8002288:	00d3      	lsls	r3, r2, #3
 800228a:	ea43 755e 	orr.w	r5, r3, lr, lsr #29
 800228e:	4673      	mov	r3, lr
        BCo = ROL(Eme, 45);
 8002290:	f8dd e068 	ldr.w	lr, [sp, #104]	; 0x68
        BCi = ROL(Eka, 3);
 8002294:	950e      	str	r5, [sp, #56]	; 0x38
 8002296:	00dd      	lsls	r5, r3, #3
 8002298:	ea45 7552 	orr.w	r5, r5, r2, lsr #29
        BCo = ROL(Eme, 45);
 800229c:	0cc3      	lsrs	r3, r0, #19
 800229e:	4672      	mov	r2, lr
 80022a0:	ea43 334e 	orr.w	r3, r3, lr, lsl #13
 80022a4:	0cd2      	lsrs	r2, r2, #19
 80022a6:	9310      	str	r3, [sp, #64]	; 0x40
 80022a8:	ea42 3340 	orr.w	r3, r2, r0, lsl #13
        BCu = ROL(Esi, 61);
 80022ac:	f8dd e04c 	ldr.w	lr, [sp, #76]	; 0x4c
        BCo = ROL(Eme, 45);
 80022b0:	9312      	str	r3, [sp, #72]	; 0x48
        BCu = ROL(Esi, 61);
 80022b2:	9b19      	ldr	r3, [sp, #100]	; 0x64
        BCu = ROL(Esu, 14);
 80022b4:	03b6      	lsls	r6, r6, #14
 80022b6:	ea46 4b9b 	orr.w	fp, r6, fp, lsr #18
        BCu = ROL(Esi, 61);
 80022ba:	ea4f 09de 	mov.w	r9, lr, lsr #3
        BCa = ROL(Ebe, 1);
 80022be:	9e2c      	ldr	r6, [sp, #176]	; 0xb0
        BCu = ROL(Esi, 61);
 80022c0:	08d8      	lsrs	r0, r3, #3
 80022c2:	ea49 7943 	orr.w	r9, r9, r3, lsl #29
 80022c6:	ea40 734e 	orr.w	r3, r0, lr, lsl #29
        BCa = ROL(Ebe, 1);
 80022ca:	f8dd e08c 	ldr.w	lr, [sp, #140]	; 0x8c
        BCu = ROL(Esi, 61);
 80022ce:	9314      	str	r3, [sp, #80]	; 0x50
        BCa = ROL(Ebe, 1);
 80022d0:	0072      	lsls	r2, r6, #1
 80022d2:	ea42 73de 	orr.w	r3, r2, lr, lsr #31
 80022d6:	4672      	mov	r2, lr
 80022d8:	0050      	lsls	r0, r2, #1
 80022da:	ea40 7ed6 	orr.w	lr, r0, r6, lsr #31
        BCe = ROL(Egi, 6);
 80022de:	981b      	ldr	r0, [sp, #108]	; 0x6c
        BCa = ROL(Ebe, 1);
 80022e0:	f8cd e054 	str.w	lr, [sp, #84]	; 0x54
        BCe = ROL(Egi, 6);
 80022e4:	0182      	lsls	r2, r0, #6
 80022e6:	ea42 6697 	orr.w	r6, r2, r7, lsr #26
 80022ea:	9618      	str	r6, [sp, #96]	; 0x60
        BCi = ROL(Eko, 25);
 80022ec:	9e1d      	ldr	r6, [sp, #116]	; 0x74
 80022ee:	f8dd e070 	ldr.w	lr, [sp, #112]	; 0x70
        BCa = ROL(Ebe, 1);
 80022f2:	9316      	str	r3, [sp, #88]	; 0x58
        BCe = ROL(Egi, 6);
 80022f4:	01bf      	lsls	r7, r7, #6
 80022f6:	ea47 6790 	orr.w	r7, r7, r0, lsr #26
        BCi = ROL(Eko, 25);
 80022fa:	0672      	lsls	r2, r6, #25
        BCe = ROL(Egi, 6);
 80022fc:	9717      	str	r7, [sp, #92]	; 0x5c
        BCi = ROL(Eko, 25);
 80022fe:	ea42 17de 	orr.w	r7, r2, lr, lsr #7
 8002302:	971a      	str	r7, [sp, #104]	; 0x68
 8002304:	4677      	mov	r7, lr
 8002306:	0678      	lsls	r0, r7, #25
 8002308:	ea40 17d6 	orr.w	r7, r0, r6, lsr #7
        BCo = ROL(Emu, 8);
 800230c:	981e      	ldr	r0, [sp, #120]	; 0x78
        BCi = ROL(Eko, 25);
 800230e:	9719      	str	r7, [sp, #100]	; 0x64
        BCo = ROL(Emu, 8);
 8002310:	0202      	lsls	r2, r0, #8
 8002312:	ea42 6718 	orr.w	r7, r2, r8, lsr #24
        BCu = ROL(Esa, 18);
 8002316:	9a34      	ldr	r2, [sp, #208]	; 0xd0
        BCo = ROL(Emu, 8);
 8002318:	971b      	str	r7, [sp, #108]	; 0x6c
 800231a:	ea4f 2808 	mov.w	r8, r8, lsl #8
        BCu = ROL(Esa, 18);
 800231e:	9f30      	ldr	r7, [sp, #192]	; 0xc0
        BCo = ROL(Emu, 8);
 8002320:	ea48 6810 	orr.w	r8, r8, r0, lsr #24
        BCu = ROL(Esa, 18);
 8002324:	0490      	lsls	r0, r2, #18
 8002326:	ea40 3697 	orr.w	r6, r0, r7, lsr #14
 800232a:	04bf      	lsls	r7, r7, #18
 800232c:	ea47 3792 	orr.w	r7, r7, r2, lsr #14
        BCa = ROL(Ebu, 27);
 8002330:	9a1f      	ldr	r2, [sp, #124]	; 0x7c
        BCu = ROL(Esa, 18);
 8002332:	961d      	str	r6, [sp, #116]	; 0x74
        BCa = ROL(Ebu, 27);
 8002334:	ea4f 60cc 	mov.w	r0, ip, lsl #27
 8002338:	ea40 1e52 	orr.w	lr, r0, r2, lsr #5
        BCe = ROL(Ega, 36);
 800233c:	9e32      	ldr	r6, [sp, #200]	; 0xc8
        BCa = ROL(Ebu, 27);
 800233e:	f8cd e07c 	str.w	lr, [sp, #124]	; 0x7c
 8002342:	ea4f 6ec2 	mov.w	lr, r2, lsl #27
 8002346:	ea4e 1c5c 	orr.w	ip, lr, ip, lsr #5
        BCe = ROL(Ega, 36);
 800234a:	f8dd e0d4 	ldr.w	lr, [sp, #212]	; 0xd4
        BCa = ROL(Ebu, 27);
 800234e:	f8cd c078 	str.w	ip, [sp, #120]	; 0x78
        BCe = ROL(Ega, 36);
 8002352:	0f32      	lsrs	r2, r6, #28
 8002354:	ea42 1c0e 	orr.w	ip, r2, lr, lsl #4
 8002358:	4672      	mov	r2, lr
 800235a:	0f10      	lsrs	r0, r2, #28
 800235c:	f8cd c080 	str.w	ip, [sp, #128]	; 0x80
 8002360:	ea40 1c06 	orr.w	ip, r0, r6, lsl #4
        BCi = ROL(Eke, 10);
 8002364:	9831      	ldr	r0, [sp, #196]	; 0xc4
 8002366:	9e2f      	ldr	r6, [sp, #188]	; 0xbc
        BCe = ROL(Ega, 36);
 8002368:	f8cd c084 	str.w	ip, [sp, #132]	; 0x84
        BCi = ROL(Eke, 10);
 800236c:	0282      	lsls	r2, r0, #10
 800236e:	ea42 5c96 	orr.w	ip, r2, r6, lsr #22
 8002372:	02b2      	lsls	r2, r6, #10
 8002374:	ea42 5690 	orr.w	r6, r2, r0, lsr #22
        BCo = ROL(Emi, 15);
 8002378:	9824      	ldr	r0, [sp, #144]	; 0x90
        BCi = ROL(Eke, 10);
 800237a:	f8cd c08c 	str.w	ip, [sp, #140]	; 0x8c
        BCo = ROL(Emi, 15);
 800237e:	03c2      	lsls	r2, r0, #15
 8002380:	ea42 4c5a 	orr.w	ip, r2, sl, lsr #17
        BCu = ROL(Eso, 56);
 8002384:	9a26      	ldr	r2, [sp, #152]	; 0x98
 8002386:	f8dd e094 	ldr.w	lr, [sp, #148]	; 0x94
        BCi = ROL(Eke, 10);
 800238a:	9622      	str	r6, [sp, #136]	; 0x88
        BCo = ROL(Emi, 15);
 800238c:	ea4f 3aca 	mov.w	sl, sl, lsl #15
 8002390:	ea4a 4a50 	orr.w	sl, sl, r0, lsr #17
        BCu = ROL(Eso, 56);
 8002394:	0a10      	lsrs	r0, r2, #8
 8002396:	ea40 660e 	orr.w	r6, r0, lr, lsl #24
 800239a:	9626      	str	r6, [sp, #152]	; 0x98
        BCa = ROL(Ebi, 62);
 800239c:	9e36      	ldr	r6, [sp, #216]	; 0xd8
 800239e:	9b37      	ldr	r3, [sp, #220]	; 0xdc
        BCo = ROL(Emi, 15);
 80023a0:	f8cd c090 	str.w	ip, [sp, #144]	; 0x90
        BCu = ROL(Eso, 56);
 80023a4:	ea4f 2c1e 	mov.w	ip, lr, lsr #8
 80023a8:	ea4c 6c02 	orr.w	ip, ip, r2, lsl #24
        BCa = ROL(Ebi, 62);
 80023ac:	08b2      	lsrs	r2, r6, #2
 80023ae:	ea42 7e83 	orr.w	lr, r2, r3, lsl #30
 80023b2:	0898      	lsrs	r0, r3, #2
        BCe = ROL(Ego, 55);
 80023b4:	9a2a      	ldr	r2, [sp, #168]	; 0xa8
        BCa = ROL(Ebi, 62);
 80023b6:	f8cd e09c 	str.w	lr, [sp, #156]	; 0x9c
 80023ba:	ea40 7686 	orr.w	r6, r0, r6, lsl #30
        BCe = ROL(Ego, 55);
 80023be:	f8dd e0a4 	ldr.w	lr, [sp, #164]	; 0xa4
        BCa = ROL(Ebi, 62);
 80023c2:	9628      	str	r6, [sp, #160]	; 0xa0
        BCe = ROL(Ego, 55);
 80023c4:	0a56      	lsrs	r6, r2, #9
 80023c6:	ea46 50ce 	orr.w	r0, r6, lr, lsl #23
 80023ca:	4676      	mov	r6, lr
 80023cc:	9029      	str	r0, [sp, #164]	; 0xa4
 80023ce:	0a76      	lsrs	r6, r6, #9
        BCi = ROL(Eku, 39);
 80023d0:	982d      	ldr	r0, [sp, #180]	; 0xb4
        Aba ^= KeccakF_RoundConstants[round + 1];
 80023d2:	9b09      	ldr	r3, [sp, #36]	; 0x24
        BCe = ROL(Ego, 55);
 80023d4:	ea46 52c2 	orr.w	r2, r6, r2, lsl #23
        BCi = ROL(Eku, 39);
 80023d8:	9e2e      	ldr	r6, [sp, #184]	; 0xb8
        BCe = ROL(Ego, 55);
 80023da:	922a      	str	r2, [sp, #168]	; 0xa8
        BCi = ROL(Eku, 39);
 80023dc:	0e42      	lsrs	r2, r0, #25
 80023de:	ea42 12c6 	orr.w	r2, r2, r6, lsl #7
 80023e2:	922b      	str	r2, [sp, #172]	; 0xac
 80023e4:	0e72      	lsrs	r2, r6, #25
 80023e6:	ea42 16c0 	orr.w	r6, r2, r0, lsl #7
 80023ea:	962c      	str	r6, [sp, #176]	; 0xb0
        BCo = ROL(Ema, 41);
 80023ec:	9839      	ldr	r0, [sp, #228]	; 0xe4
 80023ee:	9e38      	ldr	r6, [sp, #224]	; 0xe0
 80023f0:	0dc2      	lsrs	r2, r0, #23
 80023f2:	ea4f 5ed6 	mov.w	lr, r6, lsr #23
 80023f6:	ea4e 2e40 	orr.w	lr, lr, r0, lsl #9
 80023fa:	ea42 2046 	orr.w	r0, r2, r6, lsl #9
        BCu = ROL(Ese, 2);
 80023fe:	9a3b      	ldr	r2, [sp, #236]	; 0xec
        BCo = ROL(Ema, 41);
 8002400:	902d      	str	r0, [sp, #180]	; 0xb4
        BCu = ROL(Ese, 2);
 8002402:	983a      	ldr	r0, [sp, #232]	; 0xe8
 8002404:	0096      	lsls	r6, r2, #2
 8002406:	ea46 7690 	orr.w	r6, r6, r0, lsr #30
 800240a:	962e      	str	r6, [sp, #184]	; 0xb8
 800240c:	0086      	lsls	r6, r0, #2
 800240e:	ea46 7692 	orr.w	r6, r6, r2, lsr #30
        Aba = BCa ^ ((~BCe) & BCi);
 8002412:	e9dd 0202 	ldrd	r0, r2, [sp, #8]
 8002416:	ea22 0200 	bic.w	r2, r2, r0
        Aba ^= KeccakF_RoundConstants[round + 1];
 800241a:	405a      	eors	r2, r3
 800241c:	9201      	str	r2, [sp, #4]
        Aba = BCa ^ ((~BCe) & BCi);
 800241e:	9b06      	ldr	r3, [sp, #24]
 8002420:	9a04      	ldr	r2, [sp, #16]
 8002422:	ea23 0202 	bic.w	r2, r3, r2
        Aba ^= KeccakF_RoundConstants[round + 1];
 8002426:	9b11      	ldr	r3, [sp, #68]	; 0x44
 8002428:	405a      	eors	r2, r3
        Abe = BCe ^ ((~BCi) & BCo);
 800242a:	9b03      	ldr	r3, [sp, #12]
        Aba ^= KeccakF_RoundConstants[round + 1];
 800242c:	9202      	str	r2, [sp, #8]
        Abe = BCe ^ ((~BCi) & BCo);
 800242e:	ea21 0203 	bic.w	r2, r1, r3
 8002432:	4042      	eors	r2, r0
 8002434:	9203      	str	r2, [sp, #12]
        Abu = BCu ^ ((~BCa) & BCe);
 8002436:	4602      	mov	r2, r0
 8002438:	9805      	ldr	r0, [sp, #20]
 800243a:	ea22 0200 	bic.w	r2, r2, r0
        Abo = BCo ^ ((~BCu) & BCa);
 800243e:	ea20 000b 	bic.w	r0, r0, fp
 8002442:	4048      	eors	r0, r1
        Abi = BCi ^ ((~BCo) & BCu);
 8002444:	ea2b 0101 	bic.w	r1, fp, r1
        Abo = BCo ^ ((~BCu) & BCa);
 8002448:	9007      	str	r0, [sp, #28]
        Abi = BCi ^ ((~BCo) & BCu);
 800244a:	ea81 0003 	eor.w	r0, r1, r3
        Abu = BCu ^ ((~BCa) & BCe);
 800244e:	ea82 0b0b 	eor.w	fp, r2, fp
        Abe = BCe ^ ((~BCi) & BCo);
 8002452:	9b06      	ldr	r3, [sp, #24]
        Abi = BCi ^ ((~BCo) & BCu);
 8002454:	9005      	str	r0, [sp, #20]
        Abe = BCe ^ ((~BCi) & BCo);
 8002456:	9808      	ldr	r0, [sp, #32]
        Abu = BCu ^ ((~BCa) & BCe);
 8002458:	f8cd b024 	str.w	fp, [sp, #36]	; 0x24
        Abe = BCe ^ ((~BCi) & BCo);
 800245c:	f8dd b010 	ldr.w	fp, [sp, #16]
        Abu = BCu ^ ((~BCa) & BCe);
 8002460:	9a0f      	ldr	r2, [sp, #60]	; 0x3c
        Abe = BCe ^ ((~BCi) & BCo);
 8002462:	ea20 0003 	bic.w	r0, r0, r3
 8002466:	ea80 000b 	eor.w	r0, r0, fp
 800246a:	9004      	str	r0, [sp, #16]
        Abu = BCu ^ ((~BCa) & BCe);
 800246c:	ea2b 0002 	bic.w	r0, fp, r2
        Abo = BCo ^ ((~BCu) & BCa);
 8002470:	f8dd b028 	ldr.w	fp, [sp, #40]	; 0x28
 8002474:	ea22 010b 	bic.w	r1, r2, fp
 8002478:	9a08      	ldr	r2, [sp, #32]
 800247a:	4051      	eors	r1, r2
        Abi = BCi ^ ((~BCo) & BCu);
 800247c:	ea2b 0202 	bic.w	r2, fp, r2
 8002480:	405a      	eors	r2, r3
        Aga = BCa ^ ((~BCe) & BCi);
 8002482:	9b0b      	ldr	r3, [sp, #44]	; 0x2c
        Abi = BCi ^ ((~BCo) & BCu);
 8002484:	9206      	str	r2, [sp, #24]
        Abu = BCu ^ ((~BCa) & BCe);
 8002486:	ea80 0b0b 	eor.w	fp, r0, fp
        Aga = BCa ^ ((~BCe) & BCi);
 800248a:	ea25 0204 	bic.w	r2, r5, r4
        Abu = BCu ^ ((~BCa) & BCe);
 800248e:	f8cd b028 	str.w	fp, [sp, #40]	; 0x28
        Aga = BCa ^ ((~BCe) & BCi);
 8002492:	ea82 0b03 	eor.w	fp, r2, r3
        Abo = BCo ^ ((~BCu) & BCa);
 8002496:	9108      	str	r1, [sp, #32]
        Aga = BCa ^ ((~BCe) & BCi);
 8002498:	f8cd b02c 	str.w	fp, [sp, #44]	; 0x2c
 800249c:	e9dd 1b0d 	ldrd	r1, fp, [sp, #52]	; 0x34
 80024a0:	980c      	ldr	r0, [sp, #48]	; 0x30
 80024a2:	ea2b 0201 	bic.w	r2, fp, r1
 80024a6:	ea82 0b00 	eor.w	fp, r2, r0
        Age = BCe ^ ((~BCi) & BCo);
 80024aa:	9a10      	ldr	r2, [sp, #64]	; 0x40
        Aga = BCa ^ ((~BCe) & BCi);
 80024ac:	f8cd b030 	str.w	fp, [sp, #48]	; 0x30
        Age = BCe ^ ((~BCi) & BCo);
 80024b0:	ea22 0205 	bic.w	r2, r2, r5
 80024b4:	ea82 0b04 	eor.w	fp, r2, r4
 80024b8:	f8cd b034 	str.w	fp, [sp, #52]	; 0x34
        Agu = BCu ^ ((~BCa) & BCe);
 80024bc:	ea24 0403 	bic.w	r4, r4, r3
        Ago = BCo ^ ((~BCu) & BCa);
 80024c0:	ea23 0b09 	bic.w	fp, r3, r9
 80024c4:	9b10      	ldr	r3, [sp, #64]	; 0x40
 80024c6:	ea8b 0b03 	eor.w	fp, fp, r3
        Agi = BCi ^ ((~BCo) & BCu);
 80024ca:	ea29 0303 	bic.w	r3, r9, r3
        Ago = BCo ^ ((~BCu) & BCa);
 80024ce:	f8cd b044 	str.w	fp, [sp, #68]	; 0x44
        Agi = BCi ^ ((~BCo) & BCu);
 80024d2:	ea83 0b05 	eor.w	fp, r3, r5
 80024d6:	f8cd b03c 	str.w	fp, [sp, #60]	; 0x3c
        Agu = BCu ^ ((~BCa) & BCe);
 80024da:	ea84 0b09 	eor.w	fp, r4, r9
 80024de:	f8cd b04c 	str.w	fp, [sp, #76]	; 0x4c
        Age = BCe ^ ((~BCi) & BCo);
 80024e2:	9d12      	ldr	r5, [sp, #72]	; 0x48
 80024e4:	9c0e      	ldr	r4, [sp, #56]	; 0x38
        Ago = BCo ^ ((~BCu) & BCa);
 80024e6:	f8dd 9050 	ldr.w	r9, [sp, #80]	; 0x50
        Age = BCe ^ ((~BCi) & BCo);
 80024ea:	ea25 0b04 	bic.w	fp, r5, r4
        Ago = BCo ^ ((~BCu) & BCa);
 80024ee:	ea20 0209 	bic.w	r2, r0, r9
        Age = BCe ^ ((~BCi) & BCo);
 80024f2:	ea8b 0b01 	eor.w	fp, fp, r1
 80024f6:	f8cd b038 	str.w	fp, [sp, #56]	; 0x38
        Ago = BCo ^ ((~BCu) & BCa);
 80024fa:	ea82 0b05 	eor.w	fp, r2, r5
 80024fe:	f8cd b048 	str.w	fp, [sp, #72]	; 0x48
        Agi = BCi ^ ((~BCo) & BCu);
 8002502:	ea29 0b05 	bic.w	fp, r9, r5
        Agu = BCu ^ ((~BCa) & BCe);
 8002506:	ea21 0300 	bic.w	r3, r1, r0
        Agi = BCi ^ ((~BCo) & BCu);
 800250a:	ea8b 0b04 	eor.w	fp, fp, r4
        Aka = BCa ^ ((~BCe) & BCi);
 800250e:	9919      	ldr	r1, [sp, #100]	; 0x64
 8002510:	9c17      	ldr	r4, [sp, #92]	; 0x5c
 8002512:	9a15      	ldr	r2, [sp, #84]	; 0x54
 8002514:	9818      	ldr	r0, [sp, #96]	; 0x60
        Agi = BCi ^ ((~BCo) & BCu);
 8002516:	f8cd b040 	str.w	fp, [sp, #64]	; 0x40
        Agu = BCu ^ ((~BCa) & BCe);
 800251a:	ea83 0b09 	eor.w	fp, r3, r9
        Aka = BCa ^ ((~BCe) & BCi);
 800251e:	f8dd 9068 	ldr.w	r9, [sp, #104]	; 0x68
 8002522:	9b16      	ldr	r3, [sp, #88]	; 0x58
        Agu = BCu ^ ((~BCa) & BCe);
 8002524:	f8cd b050 	str.w	fp, [sp, #80]	; 0x50
        Aka = BCa ^ ((~BCe) & BCi);
 8002528:	ea21 0504 	bic.w	r5, r1, r4
 800252c:	ea85 0b02 	eor.w	fp, r5, r2
 8002530:	ea29 0500 	bic.w	r5, r9, r0
 8002534:	f8cd b054 	str.w	fp, [sp, #84]	; 0x54
 8002538:	ea85 0b03 	eor.w	fp, r5, r3
        Ake = BCe ^ ((~BCi) & BCo);
 800253c:	ea28 0501 	bic.w	r5, r8, r1
        Aka = BCa ^ ((~BCe) & BCi);
 8002540:	f8cd b0bc 	str.w	fp, [sp, #188]	; 0xbc
        Ake = BCe ^ ((~BCi) & BCo);
 8002544:	ea85 0b04 	eor.w	fp, r5, r4
 8002548:	f8cd b058 	str.w	fp, [sp, #88]	; 0x58
        Ako = BCo ^ ((~BCu) & BCa);
 800254c:	ea22 0b07 	bic.w	fp, r2, r7
        Aku = BCu ^ ((~BCa) & BCe);
 8002550:	ea24 0502 	bic.w	r5, r4, r2
        Ako = BCo ^ ((~BCu) & BCa);
 8002554:	ea8b 0b08 	eor.w	fp, fp, r8
        Ake = BCe ^ ((~BCi) & BCo);
 8002558:	9c1b      	ldr	r4, [sp, #108]	; 0x6c
        Ako = BCo ^ ((~BCu) & BCa);
 800255a:	f8cd b068 	str.w	fp, [sp, #104]	; 0x68
        Aki = BCi ^ ((~BCo) & BCu);
 800255e:	ea27 0808 	bic.w	r8, r7, r8
 8002562:	ea88 0b01 	eor.w	fp, r8, r1
 8002566:	f8cd b060 	str.w	fp, [sp, #96]	; 0x60
        Aku = BCu ^ ((~BCa) & BCe);
 800256a:	ea85 0b07 	eor.w	fp, r5, r7
        Ake = BCe ^ ((~BCi) & BCo);
 800256e:	ea24 0509 	bic.w	r5, r4, r9
        Aku = BCu ^ ((~BCa) & BCe);
 8002572:	f8cd b070 	str.w	fp, [sp, #112]	; 0x70
        Ake = BCe ^ ((~BCi) & BCo);
 8002576:	ea85 0b00 	eor.w	fp, r5, r0
        Ako = BCo ^ ((~BCu) & BCa);
 800257a:	9d1d      	ldr	r5, [sp, #116]	; 0x74
        Ake = BCe ^ ((~BCi) & BCo);
 800257c:	f8cd b05c 	str.w	fp, [sp, #92]	; 0x5c
        Ako = BCo ^ ((~BCu) & BCa);
 8002580:	ea23 0205 	bic.w	r2, r3, r5
 8002584:	ea82 0b04 	eor.w	fp, r2, r4
        Aki = BCi ^ ((~BCo) & BCu);
 8002588:	ea25 0204 	bic.w	r2, r5, r4
        Aku = BCu ^ ((~BCa) & BCe);
 800258c:	ea20 0003 	bic.w	r0, r0, r3
        Ako = BCo ^ ((~BCu) & BCa);
 8002590:	f8cd b06c 	str.w	fp, [sp, #108]	; 0x6c
        Aki = BCi ^ ((~BCo) & BCu);
 8002594:	ea82 0b09 	eor.w	fp, r2, r9
 8002598:	f8cd b064 	str.w	fp, [sp, #100]	; 0x64
        Ama = BCa ^ ((~BCe) & BCi);
 800259c:	f8dd 9088 	ldr.w	r9, [sp, #136]	; 0x88
 80025a0:	9c1e      	ldr	r4, [sp, #120]	; 0x78
 80025a2:	f8dd 808c 	ldr.w	r8, [sp, #140]	; 0x8c
 80025a6:	9f21      	ldr	r7, [sp, #132]	; 0x84
 80025a8:	991f      	ldr	r1, [sp, #124]	; 0x7c
        Aku = BCu ^ ((~BCa) & BCe);
 80025aa:	ea80 0b05 	eor.w	fp, r0, r5
        Ama = BCa ^ ((~BCe) & BCi);
 80025ae:	9d20      	ldr	r5, [sp, #128]	; 0x80
        Aku = BCu ^ ((~BCa) & BCe);
 80025b0:	f8cd b074 	str.w	fp, [sp, #116]	; 0x74
        Ama = BCa ^ ((~BCe) & BCi);
 80025b4:	ea29 0005 	bic.w	r0, r9, r5
 80025b8:	ea80 0b04 	eor.w	fp, r0, r4
        Ame = BCe ^ ((~BCi) & BCo);
 80025bc:	ea2a 0309 	bic.w	r3, sl, r9
        Ama = BCa ^ ((~BCe) & BCi);
 80025c0:	f8cd b078 	str.w	fp, [sp, #120]	; 0x78
        Ame = BCe ^ ((~BCi) & BCo);
 80025c4:	ea83 0b05 	eor.w	fp, r3, r5
 80025c8:	f8cd b07c 	str.w	fp, [sp, #124]	; 0x7c
        Amo = BCo ^ ((~BCu) & BCa);
 80025cc:	ea24 000c 	bic.w	r0, r4, ip
        Amu = BCu ^ ((~BCa) & BCe);
 80025d0:	ea25 0b04 	bic.w	fp, r5, r4
        Ame = BCe ^ ((~BCi) & BCo);
 80025d4:	9d24      	ldr	r5, [sp, #144]	; 0x90
        Amo = BCo ^ ((~BCu) & BCa);
 80025d6:	ea80 040a 	eor.w	r4, r0, sl
        Ami = BCi ^ ((~BCo) & BCu);
 80025da:	ea2c 0a0a 	bic.w	sl, ip, sl
        Ame = BCe ^ ((~BCi) & BCo);
 80025de:	ea25 0308 	bic.w	r3, r5, r8
        Amo = BCo ^ ((~BCu) & BCa);
 80025e2:	9423      	str	r4, [sp, #140]	; 0x8c
        Ami = BCi ^ ((~BCo) & BCu);
 80025e4:	ea8a 0409 	eor.w	r4, sl, r9
        Ama = BCa ^ ((~BCe) & BCi);
 80025e8:	ea28 0207 	bic.w	r2, r8, r7
        Ami = BCi ^ ((~BCo) & BCu);
 80025ec:	9421      	str	r4, [sp, #132]	; 0x84
        Amu = BCu ^ ((~BCa) & BCe);
 80025ee:	ea8b 040c 	eor.w	r4, fp, ip
        Ame = BCe ^ ((~BCi) & BCo);
 80025f2:	ea83 0c07 	eor.w	ip, r3, r7
        Amu = BCu ^ ((~BCa) & BCe);
 80025f6:	ea27 0001 	bic.w	r0, r7, r1
        Ama = BCa ^ ((~BCe) & BCi);
 80025fa:	404a      	eors	r2, r1
        Ame = BCe ^ ((~BCi) & BCo);
 80025fc:	f8cd c080 	str.w	ip, [sp, #128]	; 0x80
        Amu = BCu ^ ((~BCa) & BCe);
 8002600:	468c      	mov	ip, r1
        Amo = BCo ^ ((~BCu) & BCa);
 8002602:	9926      	ldr	r1, [sp, #152]	; 0x98
        Amu = BCu ^ ((~BCa) & BCe);
 8002604:	9425      	str	r4, [sp, #148]	; 0x94
        Ami = BCi ^ ((~BCo) & BCu);
 8002606:	ea21 0305 	bic.w	r3, r1, r5
        Ame = BCe ^ ((~BCi) & BCo);
 800260a:	4644      	mov	r4, r8
        Amo = BCo ^ ((~BCu) & BCa);
 800260c:	ea2c 0801 	bic.w	r8, ip, r1
 8002610:	ea88 0c05 	eor.w	ip, r8, r5
        Ami = BCi ^ ((~BCo) & BCu);
 8002614:	405c      	eors	r4, r3
        Asa = BCa ^ ((~BCe) & BCi);
 8002616:	f8dd 80ac 	ldr.w	r8, [sp, #172]	; 0xac
 800261a:	9b27      	ldr	r3, [sp, #156]	; 0x9c
        Ami = BCi ^ ((~BCo) & BCu);
 800261c:	9422      	str	r4, [sp, #136]	; 0x88
        Amu = BCu ^ ((~BCa) & BCe);
 800261e:	ea80 0401 	eor.w	r4, r0, r1
        Asa = BCa ^ ((~BCe) & BCi);
 8002622:	9929      	ldr	r1, [sp, #164]	; 0xa4
        Amo = BCo ^ ((~BCu) & BCa);
 8002624:	f8cd c090 	str.w	ip, [sp, #144]	; 0x90
        Ase = BCe ^ ((~BCi) & BCo);
 8002628:	ea2e 0008 	bic.w	r0, lr, r8
        Asa = BCa ^ ((~BCe) & BCi);
 800262c:	ea28 0c01 	bic.w	ip, r8, r1
        Amu = BCu ^ ((~BCa) & BCe);
 8002630:	9426      	str	r4, [sp, #152]	; 0x98
        Ase = BCe ^ ((~BCi) & BCo);
 8002632:	ea80 0401 	eor.w	r4, r0, r1
        Asi = BCi ^ ((~BCo) & BCu);
        Aso = BCo ^ ((~BCu) & BCa);
        Asu = BCu ^ ((~BCa) & BCe);
 8002636:	4608      	mov	r0, r1
 8002638:	4619      	mov	r1, r3
        Ase = BCe ^ ((~BCi) & BCo);
 800263a:	9427      	str	r4, [sp, #156]	; 0x9c
        Aso = BCo ^ ((~BCu) & BCa);
 800263c:	ea21 0406 	bic.w	r4, r1, r6
 8002640:	ea84 040e 	eor.w	r4, r4, lr
        Asi = BCi ^ ((~BCo) & BCu);
 8002644:	ea26 0e0e 	bic.w	lr, r6, lr
        Asa = BCa ^ ((~BCe) & BCi);
 8002648:	9f2a      	ldr	r7, [sp, #168]	; 0xa8
        Aso = BCo ^ ((~BCu) & BCa);
 800264a:	942a      	str	r4, [sp, #168]	; 0xa8
        Asa = BCa ^ ((~BCe) & BCi);
 800264c:	ea8c 0c03 	eor.w	ip, ip, r3
        Asi = BCi ^ ((~BCo) & BCu);
 8002650:	ea8e 0408 	eor.w	r4, lr, r8
        Asu = BCu ^ ((~BCa) & BCe);
 8002654:	ea20 0303 	bic.w	r3, r0, r3
        Asa = BCa ^ ((~BCe) & BCi);
 8002658:	9d28      	ldr	r5, [sp, #160]	; 0xa0
        Aso = BCo ^ ((~BCu) & BCa);
 800265a:	992e      	ldr	r1, [sp, #184]	; 0xb8
        Asi = BCi ^ ((~BCo) & BCu);
 800265c:	9428      	str	r4, [sp, #160]	; 0xa0
        Asu = BCu ^ ((~BCa) & BCe);
 800265e:	ea83 0406 	eor.w	r4, r3, r6
        Ase = BCe ^ ((~BCi) & BCo);
 8002662:	9b2d      	ldr	r3, [sp, #180]	; 0xb4
        Asa = BCa ^ ((~BCe) & BCi);
 8002664:	f8dd 90b0 	ldr.w	r9, [sp, #176]	; 0xb0
        Asu = BCu ^ ((~BCa) & BCe);
 8002668:	942c      	str	r4, [sp, #176]	; 0xb0
        Aso = BCo ^ ((~BCu) & BCa);
 800266a:	ea25 0001 	bic.w	r0, r5, r1
        Asi = BCi ^ ((~BCo) & BCu);
 800266e:	ea21 0403 	bic.w	r4, r1, r3
        Ase = BCe ^ ((~BCi) & BCo);
 8002672:	ea23 0a09 	bic.w	sl, r3, r9
        Aso = BCo ^ ((~BCu) & BCa);
 8002676:	4058      	eors	r0, r3
        Asu = BCu ^ ((~BCa) & BCe);
 8002678:	ea27 0605 	bic.w	r6, r7, r5
        Asi = BCi ^ ((~BCo) & BCu);
 800267c:	ea84 0309 	eor.w	r3, r4, r9
 8002680:	9329      	str	r3, [sp, #164]	; 0xa4
        Asu = BCu ^ ((~BCa) & BCe);
 8002682:	ea86 0301 	eor.w	r3, r6, r1
 8002686:	932d      	str	r3, [sp, #180]	; 0xb4
    for (round = 0; round < NROUNDS; round += 2) {
 8002688:	9900      	ldr	r1, [sp, #0]
 800268a:	4b3e      	ldr	r3, [pc, #248]	; (8002784 <KeccakF1600_StatePermute+0x1124>)
        Aso = BCo ^ ((~BCu) & BCa);
 800268c:	902b      	str	r0, [sp, #172]	; 0xac
        Asa = BCa ^ ((~BCe) & BCi);
 800268e:	ea29 0b07 	bic.w	fp, r9, r7
    for (round = 0; round < NROUNDS; round += 2) {
 8002692:	428b      	cmp	r3, r1
        Asa = BCa ^ ((~BCe) & BCi);
 8002694:	ea8b 0b05 	eor.w	fp, fp, r5
        Ase = BCe ^ ((~BCi) & BCo);
 8002698:	ea8a 0a07 	eor.w	sl, sl, r7
    for (round = 0; round < NROUNDS; round += 2) {
 800269c:	f47f a858 	bne.w	8001750 <KeccakF1600_StatePermute+0xf0>
    }

    // copyToState(state, A)
    state[0] = Aba;
 80026a0:	9b3f      	ldr	r3, [sp, #252]	; 0xfc
 80026a2:	4691      	mov	r9, r2
 80026a4:	9a01      	ldr	r2, [sp, #4]
 80026a6:	601a      	str	r2, [r3, #0]
 80026a8:	9a02      	ldr	r2, [sp, #8]
 80026aa:	605a      	str	r2, [r3, #4]
    state[1] = Abe;
 80026ac:	9a03      	ldr	r2, [sp, #12]
 80026ae:	609a      	str	r2, [r3, #8]
 80026b0:	9a04      	ldr	r2, [sp, #16]
 80026b2:	60da      	str	r2, [r3, #12]
    state[2] = Abi;
 80026b4:	9a05      	ldr	r2, [sp, #20]
 80026b6:	611a      	str	r2, [r3, #16]
 80026b8:	9a06      	ldr	r2, [sp, #24]
 80026ba:	615a      	str	r2, [r3, #20]
    state[3] = Abo;
 80026bc:	9a07      	ldr	r2, [sp, #28]
 80026be:	619a      	str	r2, [r3, #24]
 80026c0:	9a08      	ldr	r2, [sp, #32]
 80026c2:	61da      	str	r2, [r3, #28]
    state[4] = Abu;
 80026c4:	9a09      	ldr	r2, [sp, #36]	; 0x24
 80026c6:	621a      	str	r2, [r3, #32]
 80026c8:	9a0a      	ldr	r2, [sp, #40]	; 0x28
 80026ca:	625a      	str	r2, [r3, #36]	; 0x24
    state[5] = Aga;
 80026cc:	9a0b      	ldr	r2, [sp, #44]	; 0x2c
 80026ce:	629a      	str	r2, [r3, #40]	; 0x28
 80026d0:	9a0c      	ldr	r2, [sp, #48]	; 0x30
 80026d2:	62da      	str	r2, [r3, #44]	; 0x2c
    state[6] = Age;
 80026d4:	9a0d      	ldr	r2, [sp, #52]	; 0x34
 80026d6:	631a      	str	r2, [r3, #48]	; 0x30
 80026d8:	9a0e      	ldr	r2, [sp, #56]	; 0x38
 80026da:	635a      	str	r2, [r3, #52]	; 0x34
    state[7] = Agi;
 80026dc:	9a0f      	ldr	r2, [sp, #60]	; 0x3c
 80026de:	639a      	str	r2, [r3, #56]	; 0x38
 80026e0:	9a10      	ldr	r2, [sp, #64]	; 0x40
 80026e2:	63da      	str	r2, [r3, #60]	; 0x3c
    state[8] = Ago;
 80026e4:	9a11      	ldr	r2, [sp, #68]	; 0x44
 80026e6:	641a      	str	r2, [r3, #64]	; 0x40
 80026e8:	9a12      	ldr	r2, [sp, #72]	; 0x48
 80026ea:	645a      	str	r2, [r3, #68]	; 0x44
    state[9] = Agu;
 80026ec:	9a13      	ldr	r2, [sp, #76]	; 0x4c
 80026ee:	649a      	str	r2, [r3, #72]	; 0x48
 80026f0:	9a14      	ldr	r2, [sp, #80]	; 0x50
 80026f2:	64da      	str	r2, [r3, #76]	; 0x4c
    state[10] = Aka;
 80026f4:	9a15      	ldr	r2, [sp, #84]	; 0x54
 80026f6:	651a      	str	r2, [r3, #80]	; 0x50
 80026f8:	9a2f      	ldr	r2, [sp, #188]	; 0xbc
 80026fa:	655a      	str	r2, [r3, #84]	; 0x54
    state[11] = Ake;
 80026fc:	9a16      	ldr	r2, [sp, #88]	; 0x58
 80026fe:	659a      	str	r2, [r3, #88]	; 0x58
 8002700:	9a17      	ldr	r2, [sp, #92]	; 0x5c
 8002702:	65da      	str	r2, [r3, #92]	; 0x5c
    state[12] = Aki;
 8002704:	9a18      	ldr	r2, [sp, #96]	; 0x60
 8002706:	661a      	str	r2, [r3, #96]	; 0x60
 8002708:	9a19      	ldr	r2, [sp, #100]	; 0x64
 800270a:	665a      	str	r2, [r3, #100]	; 0x64
    state[13] = Ako;
 800270c:	9a1a      	ldr	r2, [sp, #104]	; 0x68
 800270e:	669a      	str	r2, [r3, #104]	; 0x68
 8002710:	9a1b      	ldr	r2, [sp, #108]	; 0x6c
 8002712:	66da      	str	r2, [r3, #108]	; 0x6c
    state[14] = Aku;
 8002714:	9a1c      	ldr	r2, [sp, #112]	; 0x70
 8002716:	671a      	str	r2, [r3, #112]	; 0x70
 8002718:	9a1d      	ldr	r2, [sp, #116]	; 0x74
 800271a:	675a      	str	r2, [r3, #116]	; 0x74
    state[15] = Ama;
 800271c:	9a1e      	ldr	r2, [sp, #120]	; 0x78
 800271e:	e9c3 291e 	strd	r2, r9, [r3, #120]	; 0x78
    state[16] = Ame;
 8002722:	9a1f      	ldr	r2, [sp, #124]	; 0x7c
 8002724:	f8c3 2080 	str.w	r2, [r3, #128]	; 0x80
 8002728:	9a20      	ldr	r2, [sp, #128]	; 0x80
 800272a:	f8c3 2084 	str.w	r2, [r3, #132]	; 0x84
    state[17] = Ami;
 800272e:	9a21      	ldr	r2, [sp, #132]	; 0x84
 8002730:	f8c3 2088 	str.w	r2, [r3, #136]	; 0x88
 8002734:	9a22      	ldr	r2, [sp, #136]	; 0x88
 8002736:	f8c3 208c 	str.w	r2, [r3, #140]	; 0x8c
    state[18] = Amo;
 800273a:	9a23      	ldr	r2, [sp, #140]	; 0x8c
 800273c:	f8c3 2090 	str.w	r2, [r3, #144]	; 0x90
 8002740:	9a24      	ldr	r2, [sp, #144]	; 0x90
 8002742:	f8c3 2094 	str.w	r2, [r3, #148]	; 0x94
    state[19] = Amu;
 8002746:	9a25      	ldr	r2, [sp, #148]	; 0x94
 8002748:	f8c3 2098 	str.w	r2, [r3, #152]	; 0x98
 800274c:	9a26      	ldr	r2, [sp, #152]	; 0x98
    state[20] = Asa;
 800274e:	f8c3 b0a4 	str.w	fp, [r3, #164]	; 0xa4
 8002752:	e9c3 2c27 	strd	r2, ip, [r3, #156]	; 0x9c
    state[21] = Ase;
 8002756:	9a27      	ldr	r2, [sp, #156]	; 0x9c
    state[22] = Asi;
    state[23] = Aso;
 8002758:	f8c3 00bc 	str.w	r0, [r3, #188]	; 0xbc
    state[21] = Ase;
 800275c:	e9c3 2a2a 	strd	r2, sl, [r3, #168]	; 0xa8
    state[22] = Asi;
 8002760:	9a28      	ldr	r2, [sp, #160]	; 0xa0
 8002762:	f8c3 20b0 	str.w	r2, [r3, #176]	; 0xb0
 8002766:	9a29      	ldr	r2, [sp, #164]	; 0xa4
 8002768:	f8c3 20b4 	str.w	r2, [r3, #180]	; 0xb4
    state[23] = Aso;
 800276c:	9a2a      	ldr	r2, [sp, #168]	; 0xa8
 800276e:	f8c3 20b8 	str.w	r2, [r3, #184]	; 0xb8
    state[24] = Asu;
 8002772:	9a2c      	ldr	r2, [sp, #176]	; 0xb0
 8002774:	f8c3 20c0 	str.w	r2, [r3, #192]	; 0xc0
 8002778:	9a2d      	ldr	r2, [sp, #180]	; 0xb4
 800277a:	f8c3 20c4 	str.w	r2, [r3, #196]	; 0xc4
}
 800277e:	b041      	add	sp, #260	; 0x104
 8002780:	e8bd 8ff0 	ldmia.w	sp!, {r4, r5, r6, r7, r8, r9, sl, fp, pc}
 8002784:	080043c0 	.word	0x080043c0

08002788 <keccak_inc_absorb>:
 *              - uint32_t r: rate in bytes (e.g., 168 for SHAKE128)
 *              - const uint8_t *m: pointer to input to be absorbed into s
 *              - size_t mlen: length of input in bytes
 **************************************************/
static void keccak_inc_absorb(uint64_t *s_inc, uint32_t r, const uint8_t *m,
                              size_t mlen) {
 8002788:	e92d 4ff8 	stmdb	sp!, {r3, r4, r5, r6, r7, r8, r9, sl, fp, lr}
 800278c:	4604      	mov	r4, r0
    size_t i;

    /* Recall that s_inc[25] is the non-absorbed bytes xored into the state */
    while (mlen + s_inc[25] >= r) {
 800278e:	f8d0 00c8 	ldr.w	r0, [r0, #200]	; 0xc8
                              size_t mlen) {
 8002792:	461e      	mov	r6, r3
    while (mlen + s_inc[25] >= r) {
 8002794:	f8d4 30cc 	ldr.w	r3, [r4, #204]	; 0xcc
                              size_t mlen) {
 8002798:	468c      	mov	ip, r1
 800279a:	4617      	mov	r7, r2
    while (mlen + s_inc[25] >= r) {
 800279c:	1982      	adds	r2, r0, r6
 800279e:	f143 0100 	adc.w	r1, r3, #0
 80027a2:	4562      	cmp	r2, ip
 80027a4:	f171 0500 	sbcs.w	r5, r1, #0
 80027a8:	d34a      	bcc.n	8002840 <keccak_inc_absorb+0xb8>
 80027aa:	4665      	mov	r5, ip
 80027ac:	4602      	mov	r2, r0
        for (i = 0; i < r - (uint32_t)s_inc[25]; i++) {
 80027ae:	4295      	cmp	r5, r2
 80027b0:	d031      	beq.n	8002816 <keccak_inc_absorb+0x8e>
 80027b2:	2100      	movs	r1, #0
 80027b4:	f107 3eff 	add.w	lr, r7, #4294967295	; 0xffffffff
 80027b8:	468c      	mov	ip, r1
            /* Take the i'th byte from message
               xor with the s_inc[25] + i'th byte of the state; little-endian */
            s_inc[(s_inc[25] + i) >> 3] ^= (uint64_t)m[i] << (8 * ((s_inc[25] + i) & 0x07));
 80027ba:	1852      	adds	r2, r2, r1
 80027bc:	eb43 030c 	adc.w	r3, r3, ip
 80027c0:	ea4f 08d2 	mov.w	r8, r2, lsr #3
 80027c4:	ea48 7843 	orr.w	r8, r8, r3, lsl #29
 80027c8:	f81e 9f01 	ldrb.w	r9, [lr, #1]!
 80027cc:	f854 0038 	ldr.w	r0, [r4, r8, lsl #3]
 80027d0:	f002 0207 	and.w	r2, r2, #7
 80027d4:	00d2      	lsls	r2, r2, #3
 80027d6:	eb04 0ac8 	add.w	sl, r4, r8, lsl #3
 80027da:	f1a2 0320 	sub.w	r3, r2, #32
 80027de:	f1c2 0b20 	rsb	fp, r2, #32
 80027e2:	fa09 f202 	lsl.w	r2, r9, r2
 80027e6:	4050      	eors	r0, r2
 80027e8:	fa09 f303 	lsl.w	r3, r9, r3
 80027ec:	f8da 2004 	ldr.w	r2, [sl, #4]
 80027f0:	f844 0038 	str.w	r0, [r4, r8, lsl #3]
 80027f4:	fa29 fb0b 	lsr.w	fp, r9, fp
 80027f8:	ea43 030b 	orr.w	r3, r3, fp
 80027fc:	4053      	eors	r3, r2
 80027fe:	f8ca 3004 	str.w	r3, [sl, #4]
        for (i = 0; i < r - (uint32_t)s_inc[25]; i++) {
 8002802:	e9d4 2332 	ldrd	r2, r3, [r4, #200]	; 0xc8
 8002806:	3101      	adds	r1, #1
 8002808:	eba5 0002 	sub.w	r0, r5, r2
 800280c:	f14c 0c00 	adc.w	ip, ip, #0
 8002810:	4288      	cmp	r0, r1
 8002812:	d8d2      	bhi.n	80027ba <keccak_inc_absorb+0x32>
        }
        mlen -= (size_t)(r - s_inc[25]);
        m += r - s_inc[25];
 8002814:	4407      	add	r7, r0
        s_inc[25] = 0;
 8002816:	2100      	movs	r1, #0
 8002818:	2000      	movs	r0, #0
 800281a:	e9c4 0132 	strd	r0, r1, [r4, #200]	; 0xc8
        mlen -= (size_t)(r - s_inc[25]);
 800281e:	1b52      	subs	r2, r2, r5

        KeccakF1600_StatePermute(s_inc);
 8002820:	4620      	mov	r0, r4
        mlen -= (size_t)(r - s_inc[25]);
 8002822:	4416      	add	r6, r2
        KeccakF1600_StatePermute(s_inc);
 8002824:	f7fe ff1c 	bl	8001660 <KeccakF1600_StatePermute>
    while (mlen + s_inc[25] >= r) {
 8002828:	e9d4 2332 	ldrd	r2, r3, [r4, #200]	; 0xc8
 800282c:	eb16 0c02 	adds.w	ip, r6, r2
 8002830:	f143 0100 	adc.w	r1, r3, #0
 8002834:	45ac      	cmp	ip, r5
 8002836:	f171 0000 	sbcs.w	r0, r1, #0
 800283a:	d2b8      	bcs.n	80027ae <keccak_inc_absorb+0x26>
 800283c:	4610      	mov	r0, r2
 800283e:	4662      	mov	r2, ip
    }

    for (i = 0; i < mlen; i++) {
 8002840:	2e00      	cmp	r6, #0
 8002842:	d053      	beq.n	80028ec <keccak_inc_absorb+0x164>
        s_inc[(s_inc[25] + i) >> 3] ^= (uint64_t)m[i] << (8 * ((s_inc[25] + i) & 0x07));
 8002844:	08c1      	lsrs	r1, r0, #3
 8002846:	ea41 7143 	orr.w	r1, r1, r3, lsl #29
 800284a:	f000 0307 	and.w	r3, r0, #7
 800284e:	00db      	lsls	r3, r3, #3
 8002850:	7838      	ldrb	r0, [r7, #0]
 8002852:	f1a3 0220 	sub.w	r2, r3, #32
 8002856:	f1c3 0c20 	rsb	ip, r3, #32
 800285a:	eb04 05c1 	add.w	r5, r4, r1, lsl #3
 800285e:	fa00 f303 	lsl.w	r3, r0, r3
 8002862:	fa00 f202 	lsl.w	r2, r0, r2
 8002866:	fa20 fc0c 	lsr.w	ip, r0, ip
 800286a:	f854 0031 	ldr.w	r0, [r4, r1, lsl #3]
 800286e:	4058      	eors	r0, r3
 8002870:	686b      	ldr	r3, [r5, #4]
 8002872:	f844 0031 	str.w	r0, [r4, r1, lsl #3]
 8002876:	ea42 020c 	orr.w	r2, r2, ip
 800287a:	405a      	eors	r2, r3
    for (i = 0; i < mlen; i++) {
 800287c:	2e01      	cmp	r6, #1
        s_inc[(s_inc[25] + i) >> 3] ^= (uint64_t)m[i] << (8 * ((s_inc[25] + i) & 0x07));
 800287e:	606a      	str	r2, [r5, #4]
    for (i = 0; i < mlen; i++) {
 8002880:	d02f      	beq.n	80028e2 <keccak_inc_absorb+0x15a>
 8002882:	f106 3cff 	add.w	ip, r6, #4294967295	; 0xffffffff
 8002886:	44bc      	add	ip, r7
 8002888:	2101      	movs	r1, #1
 800288a:	2200      	movs	r2, #0
        s_inc[(s_inc[25] + i) >> 3] ^= (uint64_t)m[i] << (8 * ((s_inc[25] + i) & 0x07));
 800288c:	e9d4 3032 	ldrd	r3, r0, [r4, #200]	; 0xc8
 8002890:	18cb      	adds	r3, r1, r3
 8002892:	eb42 0000 	adc.w	r0, r2, r0
 8002896:	08dd      	lsrs	r5, r3, #3
 8002898:	f003 0307 	and.w	r3, r3, #7
 800289c:	f817 ef01 	ldrb.w	lr, [r7, #1]!
 80028a0:	ea45 7540 	orr.w	r5, r5, r0, lsl #29
 80028a4:	00db      	lsls	r3, r3, #3
 80028a6:	f1a3 0920 	sub.w	r9, r3, #32
 80028aa:	f1c3 0020 	rsb	r0, r3, #32
 80028ae:	eb04 08c5 	add.w	r8, r4, r5, lsl #3
 80028b2:	fa0e f303 	lsl.w	r3, lr, r3
 80028b6:	fa0e f909 	lsl.w	r9, lr, r9
 80028ba:	fa2e f000 	lsr.w	r0, lr, r0
 80028be:	f854 e035 	ldr.w	lr, [r4, r5, lsl #3]
 80028c2:	ea8e 0e03 	eor.w	lr, lr, r3
 80028c6:	f8d8 3004 	ldr.w	r3, [r8, #4]
 80028ca:	f844 e035 	str.w	lr, [r4, r5, lsl #3]
    for (i = 0; i < mlen; i++) {
 80028ce:	3101      	adds	r1, #1
        s_inc[(s_inc[25] + i) >> 3] ^= (uint64_t)m[i] << (8 * ((s_inc[25] + i) & 0x07));
 80028d0:	ea49 0000 	orr.w	r0, r9, r0
    for (i = 0; i < mlen; i++) {
 80028d4:	f142 0200 	adc.w	r2, r2, #0
        s_inc[(s_inc[25] + i) >> 3] ^= (uint64_t)m[i] << (8 * ((s_inc[25] + i) & 0x07));
 80028d8:	4058      	eors	r0, r3
    for (i = 0; i < mlen; i++) {
 80028da:	4567      	cmp	r7, ip
        s_inc[(s_inc[25] + i) >> 3] ^= (uint64_t)m[i] << (8 * ((s_inc[25] + i) & 0x07));
 80028dc:	f8c8 0004 	str.w	r0, [r8, #4]
    for (i = 0; i < mlen; i++) {
 80028e0:	d1d4      	bne.n	800288c <keccak_inc_absorb+0x104>
    }
    s_inc[25] += mlen;
 80028e2:	e9d4 2132 	ldrd	r2, r1, [r4, #200]	; 0xc8
 80028e6:	18b2      	adds	r2, r6, r2
 80028e8:	f141 0100 	adc.w	r1, r1, #0
 80028ec:	e9c4 2132 	strd	r2, r1, [r4, #200]	; 0xc8
}
 80028f0:	e8bd 8ff8 	ldmia.w	sp!, {r3, r4, r5, r6, r7, r8, r9, sl, fp, pc}

080028f4 <shake256_inc_init>:

void shake128_inc_ctx_release(shake128incctx *state) {
    free(state->ctx);
}

void shake256_inc_init(shake256incctx *state) {
 80028f4:	b538      	push	{r3, r4, r5, lr}
 80028f6:	4605      	mov	r5, r0
    state->ctx = malloc(PQC_SHAKEINCCTX_BYTES);
 80028f8:	20d0      	movs	r0, #208	; 0xd0
 80028fa:	f7fd fcdf 	bl	80002bc <malloc>
 80028fe:	6028      	str	r0, [r5, #0]
    if (state->ctx == NULL) {
 8002900:	b148      	cbz	r0, 8002916 <shake256_inc_init+0x22>
        s_inc[i] = 0;
 8002902:	22c8      	movs	r2, #200	; 0xc8
 8002904:	2100      	movs	r1, #0
 8002906:	4604      	mov	r4, r0
 8002908:	f7fe f82c 	bl	8000964 <memset>
    s_inc[25] = 0;
 800290c:	2200      	movs	r2, #0
 800290e:	2300      	movs	r3, #0
 8002910:	e9c4 2332 	strd	r2, r3, [r4, #200]	; 0xc8
        exit(111);
    }
    keccak_inc_init(state->ctx);
}
 8002914:	bd38      	pop	{r3, r4, r5, pc}
        exit(111);
 8002916:	206f      	movs	r0, #111	; 0x6f
 8002918:	f7fd fc86 	bl	8000228 <exit>

0800291c <shake256_inc_absorb>:

void shake256_inc_absorb(shake256incctx *state, const uint8_t *input, size_t inlen) {
 800291c:	4613      	mov	r3, r2
    keccak_inc_absorb(state->ctx, SHAKE256_RATE, input, inlen);
 800291e:	6800      	ldr	r0, [r0, #0]
 8002920:	460a      	mov	r2, r1
 8002922:	2188      	movs	r1, #136	; 0x88
 8002924:	f7ff bf30 	b.w	8002788 <keccak_inc_absorb>

08002928 <shake256_inc_finalize>:
}

void shake256_inc_finalize(shake256incctx *state) {
    keccak_inc_finalize(state->ctx, SHAKE256_RATE, 0x1F);
 8002928:	6803      	ldr	r3, [r0, #0]
    s_inc[s_inc[25] >> 3] ^= (uint64_t)p << (8 * (s_inc[25] & 0x07));
 800292a:	e9d3 2132 	ldrd	r2, r1, [r3, #200]	; 0xc8
 800292e:	08d0      	lsrs	r0, r2, #3
 8002930:	ea40 7041 	orr.w	r0, r0, r1, lsl #29
 8002934:	f002 0207 	and.w	r2, r2, #7
void shake256_inc_finalize(shake256incctx *state) {
 8002938:	b530      	push	{r4, r5, lr}
    s_inc[s_inc[25] >> 3] ^= (uint64_t)p << (8 * (s_inc[25] & 0x07));
 800293a:	00d2      	lsls	r2, r2, #3
 800293c:	f853 4030 	ldr.w	r4, [r3, r0, lsl #3]
 8002940:	eb03 05c0 	add.w	r5, r3, r0, lsl #3
 8002944:	f04f 0c1f 	mov.w	ip, #31
 8002948:	f1a2 0120 	sub.w	r1, r2, #32
 800294c:	f1c2 0e20 	rsb	lr, r2, #32
 8002950:	fa0c f202 	lsl.w	r2, ip, r2
 8002954:	4062      	eors	r2, r4
 8002956:	fa0c f101 	lsl.w	r1, ip, r1
 800295a:	686c      	ldr	r4, [r5, #4]
 800295c:	f843 2030 	str.w	r2, [r3, r0, lsl #3]
 8002960:	fa2c fe0e 	lsr.w	lr, ip, lr
 8002964:	ea41 010e 	orr.w	r1, r1, lr
 8002968:	4061      	eors	r1, r4
 800296a:	6069      	str	r1, [r5, #4]
    s_inc[(r - 1) >> 3] ^= (uint64_t)128 << (8 * ((r - 1) & 0x07));
 800296c:	f8d3 2084 	ldr.w	r2, [r3, #132]	; 0x84
    s_inc[25] = 0;
 8002970:	2000      	movs	r0, #0
 8002972:	2100      	movs	r1, #0
    s_inc[(r - 1) >> 3] ^= (uint64_t)128 << (8 * ((r - 1) & 0x07));
 8002974:	f102 4200 	add.w	r2, r2, #2147483648	; 0x80000000
    s_inc[25] = 0;
 8002978:	e9c3 0132 	strd	r0, r1, [r3, #200]	; 0xc8
    s_inc[(r - 1) >> 3] ^= (uint64_t)128 << (8 * ((r - 1) & 0x07));
 800297c:	f8c3 2084 	str.w	r2, [r3, #132]	; 0x84
}
 8002980:	bd30      	pop	{r4, r5, pc}
 8002982:	bf00      	nop

08002984 <shake256_inc_squeeze>:

void shake256_inc_squeeze(uint8_t *output, size_t outlen, shake256incctx *state) {
 8002984:	e92d 43f8 	stmdb	sp!, {r3, r4, r5, r6, r7, r8, r9, lr}
    keccak_inc_squeeze(output, outlen, state->ctx, SHAKE256_RATE);
 8002988:	6816      	ldr	r6, [r2, #0]
    for (i = 0; i < outlen && i < s_inc[25]; i++) {
 800298a:	2900      	cmp	r1, #0
 800298c:	d06c      	beq.n	8002a68 <shake256_inc_squeeze+0xe4>
 800298e:	1e4d      	subs	r5, r1, #1
 8002990:	2200      	movs	r2, #0
 8002992:	f100 3cff 	add.w	ip, r0, #4294967295	; 0xffffffff
 8002996:	4405      	add	r5, r0
 8002998:	4617      	mov	r7, r2
 800299a:	e029      	b.n	80029f0 <shake256_inc_squeeze+0x6c>
        h[i] = (uint8_t)(s_inc[(r - s_inc[25] + i) >> 3] >> (8 * ((r - s_inc[25] + i) & 0x07)));
 800299c:	f1d3 0388 	rsbs	r3, r3, #136	; 0x88
 80029a0:	eb6e 0e4e 	sbc.w	lr, lr, lr, lsl #1
 80029a4:	189b      	adds	r3, r3, r2
 80029a6:	eb47 0e0e 	adc.w	lr, r7, lr
 80029aa:	08dc      	lsrs	r4, r3, #3
 80029ac:	ea44 744e 	orr.w	r4, r4, lr, lsl #29
 80029b0:	eb06 0ec4 	add.w	lr, r6, r4, lsl #3
 80029b4:	f003 0307 	and.w	r3, r3, #7
 80029b8:	f8de 8004 	ldr.w	r8, [lr, #4]
 80029bc:	f856 4034 	ldr.w	r4, [r6, r4, lsl #3]
 80029c0:	00db      	lsls	r3, r3, #3
 80029c2:	f1c3 0920 	rsb	r9, r3, #32
 80029c6:	f1a3 0e20 	sub.w	lr, r3, #32
 80029ca:	fa08 f909 	lsl.w	r9, r8, r9
 80029ce:	fa24 f303 	lsr.w	r3, r4, r3
 80029d2:	ea43 0309 	orr.w	r3, r3, r9
 80029d6:	fa28 fe0e 	lsr.w	lr, r8, lr
 80029da:	ea43 030e 	orr.w	r3, r3, lr
 80029de:	f80c 3f01 	strb.w	r3, [ip, #1]!
    for (i = 0; i < outlen && i < s_inc[25]; i++) {
 80029e2:	1c53      	adds	r3, r2, #1
 80029e4:	f147 0700 	adc.w	r7, r7, #0
 80029e8:	4565      	cmp	r5, ip
 80029ea:	461c      	mov	r4, r3
 80029ec:	461a      	mov	r2, r3
 80029ee:	d040      	beq.n	8002a72 <shake256_inc_squeeze+0xee>
 80029f0:	e9d6 3e32 	ldrd	r3, lr, [r6, #200]	; 0xc8
 80029f4:	429a      	cmp	r2, r3
 80029f6:	eb77 080e 	sbcs.w	r8, r7, lr
 80029fa:	4614      	mov	r4, r2
 80029fc:	d3ce      	bcc.n	800299c <shake256_inc_squeeze+0x18>
    s_inc[25] -= i;
 80029fe:	1a9b      	subs	r3, r3, r2
 8002a00:	eb6e 0707 	sbc.w	r7, lr, r7
    h += i;
 8002a04:	1905      	adds	r5, r0, r4
    while (outlen > 0) {
 8002a06:	1b0c      	subs	r4, r1, r4
    s_inc[25] -= i;
 8002a08:	e9c6 3732 	strd	r3, r7, [r6, #200]	; 0xc8
    while (outlen > 0) {
 8002a0c:	d02c      	beq.n	8002a68 <shake256_inc_squeeze+0xe4>
        KeccakF1600_StatePermute(s_inc);
 8002a0e:	4630      	mov	r0, r6
 8002a10:	f7fe fe26 	bl	8001660 <KeccakF1600_StatePermute>
        for (i = 0; i < outlen && i < r; i++) {
 8002a14:	1e6f      	subs	r7, r5, #1
 8002a16:	2200      	movs	r2, #0
 8002a18:	e001      	b.n	8002a1e <shake256_inc_squeeze+0x9a>
 8002a1a:	2a88      	cmp	r2, #136	; 0x88
 8002a1c:	d026      	beq.n	8002a6c <shake256_inc_squeeze+0xe8>
            h[i] = (uint8_t)(s_inc[i >> 3] >> (8 * (i & 0x07)));
 8002a1e:	f022 0107 	bic.w	r1, r2, #7
 8002a22:	ea4f 0cd2 	mov.w	ip, r2, lsr #3
 8002a26:	4431      	add	r1, r6
 8002a28:	f002 0307 	and.w	r3, r2, #7
 8002a2c:	6848      	ldr	r0, [r1, #4]
 8002a2e:	00d9      	lsls	r1, r3, #3
 8002a30:	f856 303c 	ldr.w	r3, [r6, ip, lsl #3]
 8002a34:	f1c1 0e20 	rsb	lr, r1, #32
 8002a38:	f1a1 0c20 	sub.w	ip, r1, #32
 8002a3c:	40cb      	lsrs	r3, r1
 8002a3e:	fa00 fe0e 	lsl.w	lr, r0, lr
 8002a42:	ea43 030e 	orr.w	r3, r3, lr
 8002a46:	fa20 fc0c 	lsr.w	ip, r0, ip
        for (i = 0; i < outlen && i < r; i++) {
 8002a4a:	3201      	adds	r2, #1
            h[i] = (uint8_t)(s_inc[i >> 3] >> (8 * (i & 0x07)));
 8002a4c:	ea43 030c 	orr.w	r3, r3, ip
        for (i = 0; i < outlen && i < r; i++) {
 8002a50:	42a2      	cmp	r2, r4
            h[i] = (uint8_t)(s_inc[i >> 3] >> (8 * (i & 0x07)));
 8002a52:	f807 3f01 	strb.w	r3, [r7, #1]!
        for (i = 0; i < outlen && i < r; i++) {
 8002a56:	d3e0      	bcc.n	8002a1a <shake256_inc_squeeze+0x96>
        s_inc[25] = r - i;
 8002a58:	f1c2 0388 	rsb	r3, r2, #136	; 0x88
 8002a5c:	2100      	movs	r1, #0
    while (outlen > 0) {
 8002a5e:	1aa4      	subs	r4, r4, r2
        s_inc[25] = r - i;
 8002a60:	e9c6 3132 	strd	r3, r1, [r6, #200]	; 0xc8
        h += i;
 8002a64:	4415      	add	r5, r2
    while (outlen > 0) {
 8002a66:	d1d2      	bne.n	8002a0e <shake256_inc_squeeze+0x8a>
}
 8002a68:	e8bd 83f8 	ldmia.w	sp!, {r3, r4, r5, r6, r7, r8, r9, pc}
 8002a6c:	2300      	movs	r3, #0
 8002a6e:	4619      	mov	r1, r3
 8002a70:	e7f5      	b.n	8002a5e <shake256_inc_squeeze+0xda>
    s_inc[25] -= i;
 8002a72:	e9d6 3e32 	ldrd	r3, lr, [r6, #200]	; 0xc8
 8002a76:	2700      	movs	r7, #0
 8002a78:	e7c1      	b.n	80029fe <shake256_inc_squeeze+0x7a>
 8002a7a:	bf00      	nop

08002a7c <shake256_inc_ctx_release>:
    }
    memcpy(dest->ctx, src->ctx, PQC_SHAKEINCCTX_BYTES);
}

void shake256_inc_ctx_release(shake256incctx *state) {
    free(state->ctx);
 8002a7c:	6800      	ldr	r0, [r0, #0]
 8002a7e:	f7fd bc25 	b.w	80002cc <free>
 8002a82:	bf00      	nop

08002a84 <simpleserial_put.constprop.0>:
	return;
}

void simpleserial_put(char c, uint8_t size, uint8_t* output)
{
    if (!output) return;
 8002a84:	2900      	cmp	r1, #0
 8002a86:	f000 8164 	beq.w	8002d52 <simpleserial_put.constprop.0+0x2ce>
void simpleserial_put(char c, uint8_t size, uint8_t* output)
 8002a8a:	b530      	push	{r4, r5, lr}
 8002a8c:	b0c1      	sub	sp, #260	; 0x104
	data_buf[0] = 0x00;
	data_buf[1] = c;
	data_buf[2] = size;
	int i = 0;
	for (; i < size; i++) {
		data_buf[i + 3] = output[i];
 8002a8e:	780a      	ldrb	r2, [r1, #0]
 8002a90:	f88d 2003 	strb.w	r2, [sp, #3]
	data_buf[0] = 0x00;
 8002a94:	2100      	movs	r1, #0
	data_buf[2] = size;
 8002a96:	2301      	movs	r3, #1
			crc = crc & 0x80 ? (crc << 1) ^ CW_CRC: crc << 1;
 8002a98:	0604      	lsls	r4, r0, #24
	data_buf[0] = 0x00;
 8002a9a:	f88d 1000 	strb.w	r1, [sp]
	data_buf[2] = size;
 8002a9e:	f88d 3002 	strb.w	r3, [sp, #2]
	data_buf[1] = c;
 8002aa2:	f88d 0001 	strb.w	r0, [sp, #1]
			crc = crc & 0x80 ? (crc << 1) ^ CW_CRC: crc << 1;
 8002aa6:	f100 80bb 	bmi.w	8002c20 <simpleserial_put.constprop.0+0x19c>
 8002aaa:	0041      	lsls	r1, r0, #1
 8002aac:	b2cb      	uxtb	r3, r1
 8002aae:	b249      	sxtb	r1, r1
 8002ab0:	2900      	cmp	r1, #0
 8002ab2:	ea4f 0343 	mov.w	r3, r3, lsl #1
 8002ab6:	f2c0 80be 	blt.w	8002c36 <simpleserial_put.constprop.0+0x1b2>
 8002aba:	b2d9      	uxtb	r1, r3
 8002abc:	b25b      	sxtb	r3, r3
 8002abe:	2b00      	cmp	r3, #0
 8002ac0:	f2c0 80c0 	blt.w	8002c44 <simpleserial_put.constprop.0+0x1c0>
 8002ac4:	0049      	lsls	r1, r1, #1
 8002ac6:	b2cb      	uxtb	r3, r1
 8002ac8:	b249      	sxtb	r1, r1
 8002aca:	2900      	cmp	r1, #0
 8002acc:	f2c0 80c2 	blt.w	8002c54 <simpleserial_put.constprop.0+0x1d0>
 8002ad0:	0059      	lsls	r1, r3, #1
 8002ad2:	b2cb      	uxtb	r3, r1
 8002ad4:	b249      	sxtb	r1, r1
 8002ad6:	2900      	cmp	r1, #0
 8002ad8:	f2c0 80c4 	blt.w	8002c64 <simpleserial_put.constprop.0+0x1e0>
 8002adc:	0059      	lsls	r1, r3, #1
 8002ade:	b2cb      	uxtb	r3, r1
 8002ae0:	b249      	sxtb	r1, r1
 8002ae2:	2900      	cmp	r1, #0
 8002ae4:	f2c0 80c6 	blt.w	8002c74 <simpleserial_put.constprop.0+0x1f0>
 8002ae8:	0059      	lsls	r1, r3, #1
 8002aea:	b2cb      	uxtb	r3, r1
 8002aec:	b249      	sxtb	r1, r1
 8002aee:	2900      	cmp	r1, #0
 8002af0:	f2c0 80c8 	blt.w	8002c84 <simpleserial_put.constprop.0+0x200>
 8002af4:	0059      	lsls	r1, r3, #1
 8002af6:	b2cb      	uxtb	r3, r1
 8002af8:	b249      	sxtb	r1, r1
 8002afa:	2900      	cmp	r1, #0
 8002afc:	ea4f 0343 	mov.w	r3, r3, lsl #1
 8002b00:	bfb8      	it	lt
 8002b02:	f083 034d 	eorlt.w	r3, r3, #77	; 0x4d
 8002b06:	b2db      	uxtb	r3, r3
		crc ^= *buf++;
 8002b08:	f083 0101 	eor.w	r1, r3, #1
			crc = crc & 0x80 ? (crc << 1) ^ CW_CRC: crc << 1;
 8002b0c:	09db      	lsrs	r3, r3, #7
 8002b0e:	f040 8118 	bne.w	8002d42 <simpleserial_put.constprop.0+0x2be>
 8002b12:	0049      	lsls	r1, r1, #1
 8002b14:	b2cb      	uxtb	r3, r1
 8002b16:	b249      	sxtb	r1, r1
 8002b18:	2900      	cmp	r1, #0
 8002b1a:	f2c0 810c 	blt.w	8002d36 <simpleserial_put.constprop.0+0x2b2>
 8002b1e:	0059      	lsls	r1, r3, #1
 8002b20:	b2cb      	uxtb	r3, r1
 8002b22:	b249      	sxtb	r1, r1
 8002b24:	2900      	cmp	r1, #0
 8002b26:	f2c0 8100 	blt.w	8002d2a <simpleserial_put.constprop.0+0x2a6>
 8002b2a:	0059      	lsls	r1, r3, #1
 8002b2c:	b2cb      	uxtb	r3, r1
 8002b2e:	b249      	sxtb	r1, r1
 8002b30:	2900      	cmp	r1, #0
 8002b32:	f2c0 80f4 	blt.w	8002d1e <simpleserial_put.constprop.0+0x29a>
 8002b36:	0059      	lsls	r1, r3, #1
 8002b38:	b2cb      	uxtb	r3, r1
 8002b3a:	b249      	sxtb	r1, r1
 8002b3c:	2900      	cmp	r1, #0
 8002b3e:	f2c0 80e8 	blt.w	8002d12 <simpleserial_put.constprop.0+0x28e>
 8002b42:	0059      	lsls	r1, r3, #1
 8002b44:	b2cb      	uxtb	r3, r1
 8002b46:	b249      	sxtb	r1, r1
 8002b48:	2900      	cmp	r1, #0
 8002b4a:	f2c0 80dc 	blt.w	8002d06 <simpleserial_put.constprop.0+0x282>
 8002b4e:	0059      	lsls	r1, r3, #1
 8002b50:	b2cb      	uxtb	r3, r1
 8002b52:	b249      	sxtb	r1, r1
 8002b54:	2900      	cmp	r1, #0
 8002b56:	f2c0 80d0 	blt.w	8002cfa <simpleserial_put.constprop.0+0x276>
 8002b5a:	0059      	lsls	r1, r3, #1
 8002b5c:	b2cb      	uxtb	r3, r1
 8002b5e:	b249      	sxtb	r1, r1
 8002b60:	005b      	lsls	r3, r3, #1
 8002b62:	2900      	cmp	r1, #0
 8002b64:	bfb8      	it	lt
 8002b66:	f083 034d 	eorlt.w	r3, r3, #77	; 0x4d
 8002b6a:	b2db      	uxtb	r3, r3
		crc ^= *buf++;
 8002b6c:	4053      	eors	r3, r2
			crc = crc & 0x80 ? (crc << 1) ^ CW_CRC: crc << 1;
 8002b6e:	0619      	lsls	r1, r3, #24
 8002b70:	f100 80bd 	bmi.w	8002cee <simpleserial_put.constprop.0+0x26a>
 8002b74:	0059      	lsls	r1, r3, #1
 8002b76:	b2cb      	uxtb	r3, r1
 8002b78:	b249      	sxtb	r1, r1
 8002b7a:	2900      	cmp	r1, #0
 8002b7c:	f2c0 80b1 	blt.w	8002ce2 <simpleserial_put.constprop.0+0x25e>
 8002b80:	0059      	lsls	r1, r3, #1
 8002b82:	b2cb      	uxtb	r3, r1
 8002b84:	b249      	sxtb	r1, r1
 8002b86:	2900      	cmp	r1, #0
 8002b88:	f2c0 80a5 	blt.w	8002cd6 <simpleserial_put.constprop.0+0x252>
 8002b8c:	0059      	lsls	r1, r3, #1
 8002b8e:	b2cb      	uxtb	r3, r1
 8002b90:	b249      	sxtb	r1, r1
 8002b92:	2900      	cmp	r1, #0
 8002b94:	f2c0 8099 	blt.w	8002cca <simpleserial_put.constprop.0+0x246>
 8002b98:	0059      	lsls	r1, r3, #1
 8002b9a:	b2cb      	uxtb	r3, r1
 8002b9c:	b249      	sxtb	r1, r1
 8002b9e:	2900      	cmp	r1, #0
 8002ba0:	f2c0 808d 	blt.w	8002cbe <simpleserial_put.constprop.0+0x23a>
 8002ba4:	0059      	lsls	r1, r3, #1
 8002ba6:	b2cb      	uxtb	r3, r1
 8002ba8:	b249      	sxtb	r1, r1
 8002baa:	2900      	cmp	r1, #0
 8002bac:	f2c0 8081 	blt.w	8002cb2 <simpleserial_put.constprop.0+0x22e>
 8002bb0:	0059      	lsls	r1, r3, #1
 8002bb2:	b2cb      	uxtb	r3, r1
 8002bb4:	b249      	sxtb	r1, r1
 8002bb6:	2900      	cmp	r1, #0
 8002bb8:	db75      	blt.n	8002ca6 <simpleserial_put.constprop.0+0x222>
 8002bba:	0059      	lsls	r1, r3, #1
 8002bbc:	b2cb      	uxtb	r3, r1
 8002bbe:	b249      	sxtb	r1, r1
 8002bc0:	005b      	lsls	r3, r3, #1
 8002bc2:	2900      	cmp	r1, #0
 8002bc4:	bfb8      	it	lt
 8002bc6:	f083 034d 	eorlt.w	r3, r3, #77	; 0x4d
 8002bca:	b2db      	uxtb	r3, r3
	}
	data_buf[i + 3] = ss_crc(data_buf+1, size+2);
	data_buf[i + 4] = 0x00;
 8002bcc:	2100      	movs	r1, #0
	data_buf[i + 3] = ss_crc(data_buf+1, size+2);
 8002bce:	f88d 3004 	strb.w	r3, [sp, #4]
	data_buf[i + 4] = 0x00;
 8002bd2:	f88d 1005 	strb.w	r1, [sp, #5]
		if (buf[i] == FRAME_BYTE) {
 8002bd6:	2800      	cmp	r0, #0
 8002bd8:	d163      	bne.n	8002ca2 <simpleserial_put.constprop.0+0x21e>
			buf[last] = i - last;
 8002bda:	2301      	movs	r3, #1
 8002bdc:	f88d 3000 	strb.w	r3, [sp]
		if (buf[i] == FRAME_BYTE) {
 8002be0:	2a00      	cmp	r2, #0
 8002be2:	d155      	bne.n	8002c90 <simpleserial_put.constprop.0+0x20c>
			buf[last] = i - last;
 8002be4:	f1c3 0203 	rsb	r2, r3, #3
 8002be8:	f80d 2003 	strb.w	r2, [sp, r3]
		if (buf[i] == FRAME_BYTE) {
 8002bec:	f89d 3004 	ldrb.w	r3, [sp, #4]
 8002bf0:	2b00      	cmp	r3, #0
 8002bf2:	f040 80ac 	bne.w	8002d4e <simpleserial_put.constprop.0+0x2ca>
	for (; i < len; i++) {
 8002bf6:	2303      	movs	r3, #3
			buf[last] = i - last;
 8002bf8:	f1c3 0204 	rsb	r2, r3, #4
 8002bfc:	f80d 2003 	strb.w	r2, [sp, r3]
	for (; i < len; i++) {
 8002c00:	2304      	movs	r3, #4
		if (buf[i] == FRAME_BYTE) {
 8002c02:	f89d 2005 	ldrb.w	r2, [sp, #5]
 8002c06:	2a00      	cmp	r2, #0
 8002c08:	d046      	beq.n	8002c98 <simpleserial_put.constprop.0+0x214>
	for (; i < len; i++) {
 8002c0a:	466c      	mov	r4, sp
 8002c0c:	f10d 0506 	add.w	r5, sp, #6
	stuff_data(data_buf, i + 5);
	for (int i = 0; i < size + 5; i++) {
		putch(data_buf[i]);
 8002c10:	f814 0b01 	ldrb.w	r0, [r4], #1
 8002c14:	f000 fb98 	bl	8003348 <putch>
	for (int i = 0; i < size + 5; i++) {
 8002c18:	42ac      	cmp	r4, r5
 8002c1a:	d1f9      	bne.n	8002c10 <simpleserial_put.constprop.0+0x18c>
	}
}
 8002c1c:	b041      	add	sp, #260	; 0x104
 8002c1e:	bd30      	pop	{r4, r5, pc}
			crc = crc & 0x80 ? (crc << 1) ^ CW_CRC: crc << 1;
 8002c20:	fa00 f303 	lsl.w	r3, r0, r3
 8002c24:	f083 034d 	eor.w	r3, r3, #77	; 0x4d
 8002c28:	b259      	sxtb	r1, r3
 8002c2a:	2900      	cmp	r1, #0
 8002c2c:	b2db      	uxtb	r3, r3
 8002c2e:	ea4f 0343 	mov.w	r3, r3, lsl #1
 8002c32:	f6bf af42 	bge.w	8002aba <simpleserial_put.constprop.0+0x36>
 8002c36:	f083 014d 	eor.w	r1, r3, #77	; 0x4d
 8002c3a:	b24b      	sxtb	r3, r1
 8002c3c:	2b00      	cmp	r3, #0
 8002c3e:	b2c9      	uxtb	r1, r1
 8002c40:	f6bf af40 	bge.w	8002ac4 <simpleserial_put.constprop.0+0x40>
 8002c44:	004b      	lsls	r3, r1, #1
 8002c46:	f083 034d 	eor.w	r3, r3, #77	; 0x4d
 8002c4a:	b259      	sxtb	r1, r3
 8002c4c:	2900      	cmp	r1, #0
 8002c4e:	b2db      	uxtb	r3, r3
 8002c50:	f6bf af3e 	bge.w	8002ad0 <simpleserial_put.constprop.0+0x4c>
 8002c54:	005b      	lsls	r3, r3, #1
 8002c56:	f083 034d 	eor.w	r3, r3, #77	; 0x4d
 8002c5a:	b259      	sxtb	r1, r3
 8002c5c:	2900      	cmp	r1, #0
 8002c5e:	b2db      	uxtb	r3, r3
 8002c60:	f6bf af3c 	bge.w	8002adc <simpleserial_put.constprop.0+0x58>
 8002c64:	005b      	lsls	r3, r3, #1
 8002c66:	f083 034d 	eor.w	r3, r3, #77	; 0x4d
 8002c6a:	b259      	sxtb	r1, r3
 8002c6c:	2900      	cmp	r1, #0
 8002c6e:	b2db      	uxtb	r3, r3
 8002c70:	f6bf af3a 	bge.w	8002ae8 <simpleserial_put.constprop.0+0x64>
 8002c74:	005b      	lsls	r3, r3, #1
 8002c76:	f083 034d 	eor.w	r3, r3, #77	; 0x4d
 8002c7a:	b259      	sxtb	r1, r3
 8002c7c:	2900      	cmp	r1, #0
 8002c7e:	b2db      	uxtb	r3, r3
 8002c80:	f6bf af38 	bge.w	8002af4 <simpleserial_put.constprop.0+0x70>
 8002c84:	005b      	lsls	r3, r3, #1
 8002c86:	f083 034d 	eor.w	r3, r3, #77	; 0x4d
 8002c8a:	b259      	sxtb	r1, r3
 8002c8c:	b2db      	uxtb	r3, r3
 8002c8e:	e734      	b.n	8002afa <simpleserial_put.constprop.0+0x76>
		if (buf[i] == FRAME_BYTE) {
 8002c90:	f89d 2004 	ldrb.w	r2, [sp, #4]
 8002c94:	2a00      	cmp	r2, #0
 8002c96:	d0af      	beq.n	8002bf8 <simpleserial_put.constprop.0+0x174>
			buf[last] = i - last;
 8002c98:	f1c3 0205 	rsb	r2, r3, #5
 8002c9c:	f80d 2003 	strb.w	r2, [sp, r3]
			last = i;
 8002ca0:	e7b3      	b.n	8002c0a <simpleserial_put.constprop.0+0x186>
	uint8_t last = 0;
 8002ca2:	460b      	mov	r3, r1
 8002ca4:	e79c      	b.n	8002be0 <simpleserial_put.constprop.0+0x15c>
			crc = crc & 0x80 ? (crc << 1) ^ CW_CRC: crc << 1;
 8002ca6:	005b      	lsls	r3, r3, #1
 8002ca8:	f083 034d 	eor.w	r3, r3, #77	; 0x4d
 8002cac:	b259      	sxtb	r1, r3
 8002cae:	b2db      	uxtb	r3, r3
 8002cb0:	e786      	b.n	8002bc0 <simpleserial_put.constprop.0+0x13c>
 8002cb2:	005b      	lsls	r3, r3, #1
 8002cb4:	f083 034d 	eor.w	r3, r3, #77	; 0x4d
 8002cb8:	b259      	sxtb	r1, r3
 8002cba:	b2db      	uxtb	r3, r3
 8002cbc:	e77b      	b.n	8002bb6 <simpleserial_put.constprop.0+0x132>
 8002cbe:	005b      	lsls	r3, r3, #1
 8002cc0:	f083 034d 	eor.w	r3, r3, #77	; 0x4d
 8002cc4:	b259      	sxtb	r1, r3
 8002cc6:	b2db      	uxtb	r3, r3
 8002cc8:	e76f      	b.n	8002baa <simpleserial_put.constprop.0+0x126>
 8002cca:	005b      	lsls	r3, r3, #1
 8002ccc:	f083 034d 	eor.w	r3, r3, #77	; 0x4d
 8002cd0:	b259      	sxtb	r1, r3
 8002cd2:	b2db      	uxtb	r3, r3
 8002cd4:	e763      	b.n	8002b9e <simpleserial_put.constprop.0+0x11a>
 8002cd6:	005b      	lsls	r3, r3, #1
 8002cd8:	f083 034d 	eor.w	r3, r3, #77	; 0x4d
 8002cdc:	b259      	sxtb	r1, r3
 8002cde:	b2db      	uxtb	r3, r3
 8002ce0:	e757      	b.n	8002b92 <simpleserial_put.constprop.0+0x10e>
 8002ce2:	005b      	lsls	r3, r3, #1
 8002ce4:	f083 034d 	eor.w	r3, r3, #77	; 0x4d
 8002ce8:	b259      	sxtb	r1, r3
 8002cea:	b2db      	uxtb	r3, r3
 8002cec:	e74b      	b.n	8002b86 <simpleserial_put.constprop.0+0x102>
 8002cee:	005b      	lsls	r3, r3, #1
 8002cf0:	f083 034d 	eor.w	r3, r3, #77	; 0x4d
 8002cf4:	b259      	sxtb	r1, r3
 8002cf6:	b2db      	uxtb	r3, r3
 8002cf8:	e73f      	b.n	8002b7a <simpleserial_put.constprop.0+0xf6>
 8002cfa:	005b      	lsls	r3, r3, #1
 8002cfc:	f083 034d 	eor.w	r3, r3, #77	; 0x4d
 8002d00:	b259      	sxtb	r1, r3
 8002d02:	b2db      	uxtb	r3, r3
 8002d04:	e72c      	b.n	8002b60 <simpleserial_put.constprop.0+0xdc>
 8002d06:	005b      	lsls	r3, r3, #1
 8002d08:	f083 034d 	eor.w	r3, r3, #77	; 0x4d
 8002d0c:	b259      	sxtb	r1, r3
 8002d0e:	b2db      	uxtb	r3, r3
 8002d10:	e720      	b.n	8002b54 <simpleserial_put.constprop.0+0xd0>
 8002d12:	005b      	lsls	r3, r3, #1
 8002d14:	f083 034d 	eor.w	r3, r3, #77	; 0x4d
 8002d18:	b259      	sxtb	r1, r3
 8002d1a:	b2db      	uxtb	r3, r3
 8002d1c:	e714      	b.n	8002b48 <simpleserial_put.constprop.0+0xc4>
 8002d1e:	005b      	lsls	r3, r3, #1
 8002d20:	f083 034d 	eor.w	r3, r3, #77	; 0x4d
 8002d24:	b259      	sxtb	r1, r3
 8002d26:	b2db      	uxtb	r3, r3
 8002d28:	e708      	b.n	8002b3c <simpleserial_put.constprop.0+0xb8>
 8002d2a:	005b      	lsls	r3, r3, #1
 8002d2c:	f083 034d 	eor.w	r3, r3, #77	; 0x4d
 8002d30:	b259      	sxtb	r1, r3
 8002d32:	b2db      	uxtb	r3, r3
 8002d34:	e6fc      	b.n	8002b30 <simpleserial_put.constprop.0+0xac>
 8002d36:	005b      	lsls	r3, r3, #1
 8002d38:	f083 034d 	eor.w	r3, r3, #77	; 0x4d
 8002d3c:	b259      	sxtb	r1, r3
 8002d3e:	b2db      	uxtb	r3, r3
 8002d40:	e6f0      	b.n	8002b24 <simpleserial_put.constprop.0+0xa0>
 8002d42:	004b      	lsls	r3, r1, #1
 8002d44:	f083 034d 	eor.w	r3, r3, #77	; 0x4d
 8002d48:	b259      	sxtb	r1, r3
 8002d4a:	b2db      	uxtb	r3, r3
 8002d4c:	e6e4      	b.n	8002b18 <simpleserial_put.constprop.0+0x94>
	for (; i < len; i++) {
 8002d4e:	2303      	movs	r3, #3
 8002d50:	e757      	b.n	8002c02 <simpleserial_put.constprop.0+0x17e>
 8002d52:	4770      	bx	lr

08002d54 <check_version>:
{
 8002d54:	b500      	push	{lr}
 8002d56:	b083      	sub	sp, #12
	uint8_t ver = SS_VER;
 8002d58:	2303      	movs	r3, #3
	simpleserial_put('r', 1, &ver);
 8002d5a:	2072      	movs	r0, #114	; 0x72
 8002d5c:	f10d 0107 	add.w	r1, sp, #7
	uint8_t ver = SS_VER;
 8002d60:	f88d 3007 	strb.w	r3, [sp, #7]
	simpleserial_put('r', 1, &ver);
 8002d64:	f7ff fe8e 	bl	8002a84 <simpleserial_put.constprop.0>
}
 8002d68:	2000      	movs	r0, #0
 8002d6a:	b003      	add	sp, #12
 8002d6c:	f85d fb04 	ldr.w	pc, [sp], #4

08002d70 <simpleserial_init>:
{
 8002d70:	b510      	push	{r4, lr}
	if(num_commands >= MAX_SS_CMDS) {
 8002d72:	4c15      	ldr	r4, [pc, #84]	; (8002dc8 <simpleserial_init+0x58>)
 8002d74:	6823      	ldr	r3, [r4, #0]
 8002d76:	2b0f      	cmp	r3, #15
 8002d78:	dc1b      	bgt.n	8002db2 <simpleserial_init+0x42>
	commands[num_commands].c   = c;
 8002d7a:	eb03 0243 	add.w	r2, r3, r3, lsl #1
 8002d7e:	eb04 0282 	add.w	r2, r4, r2, lsl #2
 8002d82:	2076      	movs	r0, #118	; 0x76
	num_commands++;
 8002d84:	3301      	adds	r3, #1
	commands[num_commands].fp  = fp;
 8002d86:	4911      	ldr	r1, [pc, #68]	; (8002dcc <simpleserial_init+0x5c>)
	commands[num_commands].c   = c;
 8002d88:	7110      	strb	r0, [r2, #4]
	if(num_commands >= MAX_SS_CMDS) {
 8002d8a:	2b0f      	cmp	r3, #15
	commands[num_commands].len = len;
 8002d8c:	f04f 0000 	mov.w	r0, #0
	commands[num_commands].fp  = fp;
 8002d90:	e9c2 0102 	strd	r0, r1, [r2, #8]
	num_commands++;
 8002d94:	6023      	str	r3, [r4, #0]
	if(num_commands >= MAX_SS_CMDS) {
 8002d96:	dc12      	bgt.n	8002dbe <simpleserial_init+0x4e>
	commands[num_commands].c   = c;
 8002d98:	eb03 0243 	add.w	r2, r3, r3, lsl #1
 8002d9c:	eb04 0282 	add.w	r2, r4, r2, lsl #2
 8002da0:	2077      	movs	r0, #119	; 0x77
	commands[num_commands].fp  = fp;
 8002da2:	490b      	ldr	r1, [pc, #44]	; (8002dd0 <simpleserial_init+0x60>)
	commands[num_commands].c   = c;
 8002da4:	7110      	strb	r0, [r2, #4]
	num_commands++;
 8002da6:	3301      	adds	r3, #1
	commands[num_commands].len = len;
 8002da8:	2000      	movs	r0, #0
	commands[num_commands].fp  = fp;
 8002daa:	e9c2 0102 	strd	r0, r1, [r2, #8]
	num_commands++;
 8002dae:	6023      	str	r3, [r4, #0]
}
 8002db0:	bd10      	pop	{r4, pc}
		putch('a');
 8002db2:	2061      	movs	r0, #97	; 0x61
 8002db4:	f000 fac8 	bl	8003348 <putch>
	if(num_commands >= MAX_SS_CMDS) {
 8002db8:	6823      	ldr	r3, [r4, #0]
 8002dba:	2b0f      	cmp	r3, #15
 8002dbc:	ddec      	ble.n	8002d98 <simpleserial_init+0x28>
}
 8002dbe:	e8bd 4010 	ldmia.w	sp!, {r4, lr}
		putch('a');
 8002dc2:	2061      	movs	r0, #97	; 0x61
 8002dc4:	f000 bac0 	b.w	8003348 <putch>
 8002dc8:	2000085c 	.word	0x2000085c
 8002dcc:	08002d55 	.word	0x08002d55
 8002dd0:	0800317d 	.word	0x0800317d

08002dd4 <simpleserial_addcmd>:
{
 8002dd4:	b510      	push	{r4, lr}
	if(num_commands >= MAX_SS_CMDS) {
 8002dd6:	4c0e      	ldr	r4, [pc, #56]	; (8002e10 <simpleserial_addcmd+0x3c>)
 8002dd8:	6823      	ldr	r3, [r4, #0]
 8002dda:	2b0f      	cmp	r3, #15
 8002ddc:	dc0d      	bgt.n	8002dfa <simpleserial_addcmd+0x26>
	if(len >= MAX_SS_LEN) {
 8002dde:	29ff      	cmp	r1, #255	; 0xff
 8002de0:	d810      	bhi.n	8002e04 <simpleserial_addcmd+0x30>
	commands[num_commands].c   = c;
 8002de2:	eb03 0c43 	add.w	ip, r3, r3, lsl #1
 8002de6:	eb04 0c8c 	add.w	ip, r4, ip, lsl #2
	num_commands++;
 8002dea:	3301      	adds	r3, #1
	commands[num_commands].c   = c;
 8002dec:	f88c 0004 	strb.w	r0, [ip, #4]
	commands[num_commands].fp  = fp;
 8002df0:	e9cc 1202 	strd	r1, r2, [ip, #8]
	num_commands++;
 8002df4:	6023      	str	r3, [r4, #0]
	return 0;
 8002df6:	2000      	movs	r0, #0
}
 8002df8:	bd10      	pop	{r4, pc}
		putch('a');
 8002dfa:	2061      	movs	r0, #97	; 0x61
 8002dfc:	f000 faa4 	bl	8003348 <putch>
		return 1;
 8002e00:	2001      	movs	r0, #1
}
 8002e02:	bd10      	pop	{r4, pc}
		putch('b');
 8002e04:	2062      	movs	r0, #98	; 0x62
 8002e06:	f000 fa9f 	bl	8003348 <putch>
		return 1;
 8002e0a:	2001      	movs	r0, #1
}
 8002e0c:	bd10      	pop	{r4, pc}
 8002e0e:	bf00      	nop
 8002e10:	2000085c 	.word	0x2000085c

08002e14 <simpleserial_get>:
{
 8002e14:	e92d 4ff0 	stmdb	sp!, {r4, r5, r6, r7, r8, r9, sl, fp, lr}
 8002e18:	b0c3      	sub	sp, #268	; 0x10c
	uint8_t err = 0;
 8002e1a:	2300      	movs	r3, #0
 8002e1c:	ad02      	add	r5, sp, #8
 8002e1e:	f88d 3007 	strb.w	r3, [sp, #7]
	for (int i = 0; i < 4; i++) {
 8002e22:	462c      	mov	r4, r5
 8002e24:	ae03      	add	r6, sp, #12
		data_buf[i] = getch(); //PTR, cmd, scmd, len
 8002e26:	f000 fa7b 	bl	8003320 <getch>
 8002e2a:	f804 0b01 	strb.w	r0, [r4], #1
		if (data_buf[i] == FRAME_BYTE) {
 8002e2e:	2800      	cmp	r0, #0
 8002e30:	d03d      	beq.n	8002eae <simpleserial_get+0x9a>
	for (int i = 0; i < 4; i++) {
 8002e32:	42a6      	cmp	r6, r4
 8002e34:	d1f7      	bne.n	8002e26 <simpleserial_get+0x12>
	uint8_t next = buf[0];
 8002e36:	782c      	ldrb	r4, [r5, #0]
	buf[0] = 0x00;
 8002e38:	2200      	movs	r2, #0
	while ((next < len) && tmp != 0) {
 8002e3a:	2c03      	cmp	r4, #3
	buf[0] = 0x00;
 8002e3c:	702a      	strb	r2, [r5, #0]
	while ((next < len) && tmp != 0) {
 8002e3e:	d808      	bhi.n	8002e52 <simpleserial_get+0x3e>
 8002e40:	b90c      	cbnz	r4, 8002e46 <simpleserial_get+0x32>
 8002e42:	e006      	b.n	8002e52 <simpleserial_get+0x3e>
 8002e44:	b12b      	cbz	r3, 8002e52 <simpleserial_get+0x3e>
		tmp = buf[next];
 8002e46:	5d2b      	ldrb	r3, [r5, r4]
		buf[next] = FRAME_BYTE;
 8002e48:	552a      	strb	r2, [r5, r4]
		next += tmp;
 8002e4a:	441c      	add	r4, r3
 8002e4c:	b2e4      	uxtb	r4, r4
	while ((next < len) && tmp != 0) {
 8002e4e:	2c03      	cmp	r4, #3
 8002e50:	d9f8      	bls.n	8002e44 <simpleserial_get+0x30>
	for(c = 0; c < num_commands; c++)
 8002e52:	f8df 81b4 	ldr.w	r8, [pc, #436]	; 8003008 <simpleserial_get+0x1f4>
 8002e56:	f8d8 1000 	ldr.w	r1, [r8]
 8002e5a:	2900      	cmp	r1, #0
 8002e5c:	bfd8      	it	le
 8002e5e:	2700      	movle	r7, #0
 8002e60:	dd39      	ble.n	8002ed6 <simpleserial_get+0xc2>
		if(commands[c].c == data_buf[1])
 8002e62:	2300      	movs	r3, #0
 8002e64:	7868      	ldrb	r0, [r5, #1]
	for(c = 0; c < num_commands; c++)
 8002e66:	461f      	mov	r7, r3
 8002e68:	e002      	b.n	8002e70 <simpleserial_get+0x5c>
 8002e6a:	428b      	cmp	r3, r1
 8002e6c:	461f      	mov	r7, r3
 8002e6e:	da32      	bge.n	8002ed6 <simpleserial_get+0xc2>
		if(commands[c].c == data_buf[1])
 8002e70:	eb07 0247 	add.w	r2, r7, r7, lsl #1
 8002e74:	eb08 0282 	add.w	r2, r8, r2, lsl #2
	for(c = 0; c < num_commands; c++)
 8002e78:	3301      	adds	r3, #1
		if(commands[c].c == data_buf[1])
 8002e7a:	7912      	ldrb	r2, [r2, #4]
 8002e7c:	4282      	cmp	r2, r0
	for(c = 0; c < num_commands; c++)
 8002e7e:	b2db      	uxtb	r3, r3
		if(commands[c].c == data_buf[1])
 8002e80:	d1f3      	bne.n	8002e6a <simpleserial_get+0x56>
	if ((data_buf[3] + 5) < next_frame) {
 8002e82:	78eb      	ldrb	r3, [r5, #3]
 8002e84:	3305      	adds	r3, #5
 8002e86:	42a3      	cmp	r3, r4
 8002e88:	db1a      	blt.n	8002ec0 <simpleserial_get+0xac>
 8002e8a:	f10d 0b0b 	add.w	fp, sp, #11
	int i = 4;
 8002e8e:	f04f 0904 	mov.w	r9, #4
 8002e92:	e004      	b.n	8002e9e <simpleserial_get+0x8a>
	for (; i < data_buf[3] + 5; i++) {
 8002e94:	78eb      	ldrb	r3, [r5, #3]
 8002e96:	3304      	adds	r3, #4
 8002e98:	4553      	cmp	r3, sl
 8002e9a:	db0c      	blt.n	8002eb6 <simpleserial_get+0xa2>
 8002e9c:	46d1      	mov	r9, sl
		data_buf[i] = getch();
 8002e9e:	f000 fa3f 	bl	8003320 <getch>
	for (; i < data_buf[3] + 5; i++) {
 8002ea2:	f109 0a01 	add.w	sl, r9, #1
		data_buf[i] = getch();
 8002ea6:	f80b 0f01 	strb.w	r0, [fp, #1]!
		if (data_buf[i] == FRAME_BYTE) {
 8002eaa:	2800      	cmp	r0, #0
 8002eac:	d1f2      	bne.n	8002e94 <simpleserial_get+0x80>
			err = SS_ERR_FRAME_BYTE;
 8002eae:	2305      	movs	r3, #5
 8002eb0:	f88d 3007 	strb.w	r3, [sp, #7]
			goto ERROR;
 8002eb4:	e007      	b.n	8002ec6 <simpleserial_get+0xb2>
	data_buf[i] = getch();
 8002eb6:	f000 fa33 	bl	8003320 <getch>
 8002eba:	f805 000a 	strb.w	r0, [r5, sl]
	if (data_buf[i] != FRAME_BYTE) {
 8002ebe:	b180      	cbz	r0, 8002ee2 <simpleserial_get+0xce>
		err = SS_ERR_LEN;
 8002ec0:	2304      	movs	r3, #4
 8002ec2:	f88d 3007 	strb.w	r3, [sp, #7]
	simpleserial_put('e', 0x01, &err);
 8002ec6:	f10d 0107 	add.w	r1, sp, #7
 8002eca:	2065      	movs	r0, #101	; 0x65
 8002ecc:	f7ff fdda 	bl	8002a84 <simpleserial_put.constprop.0>
}
 8002ed0:	b043      	add	sp, #268	; 0x10c
 8002ed2:	e8bd 8ff0 	ldmia.w	sp!, {r4, r5, r6, r7, r8, r9, sl, fp, pc}
	if (c == num_commands) {
 8002ed6:	428f      	cmp	r7, r1
 8002ed8:	d1d3      	bne.n	8002e82 <simpleserial_get+0x6e>
		err = SS_ERR_CMD;
 8002eda:	2301      	movs	r3, #1
 8002edc:	f88d 3007 	strb.w	r3, [sp, #7]
		goto ERROR;
 8002ee0:	e7f1      	b.n	8002ec6 <simpleserial_get+0xb2>
	unstuff_data(data_buf + next_frame, i - next_frame + 1);
 8002ee2:	f1c4 0101 	rsb	r1, r4, #1
 8002ee6:	fa5f fa8a 	uxtb.w	sl, sl
	uint8_t next = buf[0];
 8002eea:	5d2b      	ldrb	r3, [r5, r4]
	buf[0] = 0x00;
 8002eec:	5528      	strb	r0, [r5, r4]
	unstuff_data(data_buf + next_frame, i - next_frame + 1);
 8002eee:	4451      	add	r1, sl
 8002ef0:	b2c9      	uxtb	r1, r1
	while ((next < len) && tmp != 0) {
 8002ef2:	4299      	cmp	r1, r3
	unstuff_data(data_buf + next_frame, i - next_frame + 1);
 8002ef4:	442c      	add	r4, r5
	while ((next < len) && tmp != 0) {
 8002ef6:	d90a      	bls.n	8002f0e <simpleserial_get+0xfa>
 8002ef8:	b14b      	cbz	r3, 8002f0e <simpleserial_get+0xfa>
		buf[next] = FRAME_BYTE;
 8002efa:	4684      	mov	ip, r0
 8002efc:	e000      	b.n	8002f00 <simpleserial_get+0xec>
	while ((next < len) && tmp != 0) {
 8002efe:	b132      	cbz	r2, 8002f0e <simpleserial_get+0xfa>
		tmp = buf[next];
 8002f00:	5ce2      	ldrb	r2, [r4, r3]
		buf[next] = FRAME_BYTE;
 8002f02:	f804 c003 	strb.w	ip, [r4, r3]
		next += tmp;
 8002f06:	4413      	add	r3, r2
 8002f08:	b2db      	uxtb	r3, r3
	while ((next < len) && tmp != 0) {
 8002f0a:	4299      	cmp	r1, r3
 8002f0c:	d8f7      	bhi.n	8002efe <simpleserial_get+0xea>
	while (len--) {
 8002f0e:	f10a 3aff 	add.w	sl, sl, #4294967295	; 0xffffffff
 8002f12:	fa55 f48a 	uxtab	r4, r5, sl
 8002f16:	f10d 0109 	add.w	r1, sp, #9
 8002f1a:	e029      	b.n	8002f70 <simpleserial_get+0x15c>
			crc = crc & 0x80 ? (crc << 1) ^ CW_CRC: crc << 1;
 8002f1c:	005a      	lsls	r2, r3, #1
 8002f1e:	b2d3      	uxtb	r3, r2
 8002f20:	b252      	sxtb	r2, r2
 8002f22:	2a00      	cmp	r2, #0
 8002f24:	db31      	blt.n	8002f8a <simpleserial_get+0x176>
 8002f26:	005a      	lsls	r2, r3, #1
 8002f28:	b2d3      	uxtb	r3, r2
 8002f2a:	b252      	sxtb	r2, r2
 8002f2c:	2a00      	cmp	r2, #0
 8002f2e:	db33      	blt.n	8002f98 <simpleserial_get+0x184>
 8002f30:	005a      	lsls	r2, r3, #1
 8002f32:	b2d3      	uxtb	r3, r2
 8002f34:	b252      	sxtb	r2, r2
 8002f36:	2a00      	cmp	r2, #0
 8002f38:	db35      	blt.n	8002fa6 <simpleserial_get+0x192>
 8002f3a:	005a      	lsls	r2, r3, #1
 8002f3c:	b2d3      	uxtb	r3, r2
 8002f3e:	b252      	sxtb	r2, r2
 8002f40:	2a00      	cmp	r2, #0
 8002f42:	db37      	blt.n	8002fb4 <simpleserial_get+0x1a0>
 8002f44:	005a      	lsls	r2, r3, #1
 8002f46:	b2d3      	uxtb	r3, r2
 8002f48:	b252      	sxtb	r2, r2
 8002f4a:	2a00      	cmp	r2, #0
 8002f4c:	db39      	blt.n	8002fc2 <simpleserial_get+0x1ae>
 8002f4e:	005a      	lsls	r2, r3, #1
 8002f50:	b2d3      	uxtb	r3, r2
 8002f52:	b252      	sxtb	r2, r2
 8002f54:	2a00      	cmp	r2, #0
 8002f56:	ea4f 0343 	mov.w	r3, r3, lsl #1
 8002f5a:	db3b      	blt.n	8002fd4 <simpleserial_get+0x1c0>
 8002f5c:	b2d8      	uxtb	r0, r3
 8002f5e:	b25b      	sxtb	r3, r3
 8002f60:	0040      	lsls	r0, r0, #1
 8002f62:	2b00      	cmp	r3, #0
 8002f64:	bfb8      	it	lt
 8002f66:	f080 004d 	eorlt.w	r0, r0, #77	; 0x4d
	while (len--) {
 8002f6a:	428c      	cmp	r4, r1
			crc = crc & 0x80 ? (crc << 1) ^ CW_CRC: crc << 1;
 8002f6c:	b2c0      	uxtb	r0, r0
	while (len--) {
 8002f6e:	d036      	beq.n	8002fde <simpleserial_get+0x1ca>
		crc ^= *buf++;
 8002f70:	f811 3b01 	ldrb.w	r3, [r1], #1
 8002f74:	4058      	eors	r0, r3
			crc = crc & 0x80 ? (crc << 1) ^ CW_CRC: crc << 1;
 8002f76:	0602      	lsls	r2, r0, #24
		crc ^= *buf++;
 8002f78:	b2c3      	uxtb	r3, r0
			crc = crc & 0x80 ? (crc << 1) ^ CW_CRC: crc << 1;
 8002f7a:	d5cf      	bpl.n	8002f1c <simpleserial_get+0x108>
 8002f7c:	005b      	lsls	r3, r3, #1
 8002f7e:	f083 034d 	eor.w	r3, r3, #77	; 0x4d
 8002f82:	b25a      	sxtb	r2, r3
 8002f84:	2a00      	cmp	r2, #0
 8002f86:	b2db      	uxtb	r3, r3
 8002f88:	dacd      	bge.n	8002f26 <simpleserial_get+0x112>
 8002f8a:	005b      	lsls	r3, r3, #1
 8002f8c:	f083 034d 	eor.w	r3, r3, #77	; 0x4d
 8002f90:	b25a      	sxtb	r2, r3
 8002f92:	2a00      	cmp	r2, #0
 8002f94:	b2db      	uxtb	r3, r3
 8002f96:	dacb      	bge.n	8002f30 <simpleserial_get+0x11c>
 8002f98:	005b      	lsls	r3, r3, #1
 8002f9a:	f083 034d 	eor.w	r3, r3, #77	; 0x4d
 8002f9e:	b25a      	sxtb	r2, r3
 8002fa0:	2a00      	cmp	r2, #0
 8002fa2:	b2db      	uxtb	r3, r3
 8002fa4:	dac9      	bge.n	8002f3a <simpleserial_get+0x126>
 8002fa6:	005b      	lsls	r3, r3, #1
 8002fa8:	f083 034d 	eor.w	r3, r3, #77	; 0x4d
 8002fac:	b25a      	sxtb	r2, r3
 8002fae:	2a00      	cmp	r2, #0
 8002fb0:	b2db      	uxtb	r3, r3
 8002fb2:	dac7      	bge.n	8002f44 <simpleserial_get+0x130>
 8002fb4:	005b      	lsls	r3, r3, #1
 8002fb6:	f083 034d 	eor.w	r3, r3, #77	; 0x4d
 8002fba:	b25a      	sxtb	r2, r3
 8002fbc:	2a00      	cmp	r2, #0
 8002fbe:	b2db      	uxtb	r3, r3
 8002fc0:	dac5      	bge.n	8002f4e <simpleserial_get+0x13a>
 8002fc2:	005b      	lsls	r3, r3, #1
 8002fc4:	f083 034d 	eor.w	r3, r3, #77	; 0x4d
 8002fc8:	b25a      	sxtb	r2, r3
 8002fca:	2a00      	cmp	r2, #0
 8002fcc:	b2db      	uxtb	r3, r3
 8002fce:	ea4f 0343 	mov.w	r3, r3, lsl #1
 8002fd2:	dac3      	bge.n	8002f5c <simpleserial_get+0x148>
 8002fd4:	f083 004d 	eor.w	r0, r3, #77	; 0x4d
 8002fd8:	b243      	sxtb	r3, r0
 8002fda:	b2c0      	uxtb	r0, r0
 8002fdc:	e7c0      	b.n	8002f60 <simpleserial_get+0x14c>
	if (crc != data_buf[i-1]) {
 8002fde:	f815 3009 	ldrb.w	r3, [r5, r9]
 8002fe2:	4283      	cmp	r3, r0
 8002fe4:	d003      	beq.n	8002fee <simpleserial_get+0x1da>
		err = SS_ERR_CRC;
 8002fe6:	2302      	movs	r3, #2
 8002fe8:	f88d 3007 	strb.w	r3, [sp, #7]
		goto ERROR;
 8002fec:	e76b      	b.n	8002ec6 <simpleserial_get+0xb2>
	err = commands[c].fp(data_buf[1], data_buf[2], data_buf[3], data_buf+4);
 8002fee:	eb07 0747 	add.w	r7, r7, r7, lsl #1
 8002ff2:	eb08 0787 	add.w	r7, r8, r7, lsl #2
 8002ff6:	78ea      	ldrb	r2, [r5, #3]
 8002ff8:	68fc      	ldr	r4, [r7, #12]
 8002ffa:	78a9      	ldrb	r1, [r5, #2]
 8002ffc:	7868      	ldrb	r0, [r5, #1]
 8002ffe:	4633      	mov	r3, r6
 8003000:	47a0      	blx	r4
 8003002:	f88d 0007 	strb.w	r0, [sp, #7]
 8003006:	e75e      	b.n	8002ec6 <simpleserial_get+0xb2>
 8003008:	2000085c 	.word	0x2000085c

0800300c <simpleserial_put>:
    if (!output) return;
 800300c:	2a00      	cmp	r2, #0
 800300e:	f000 80a7 	beq.w	8003160 <simpleserial_put+0x154>
{
 8003012:	b570      	push	{r4, r5, r6, lr}
 8003014:	b0c0      	sub	sp, #256	; 0x100
	data_buf[0] = 0x00;
 8003016:	2500      	movs	r5, #0
 8003018:	460c      	mov	r4, r1
 800301a:	f88d 5000 	strb.w	r5, [sp]
	data_buf[1] = c;
 800301e:	f88d 0001 	strb.w	r0, [sp, #1]
	data_buf[2] = size;
 8003022:	f88d 1002 	strb.w	r1, [sp, #2]
	for (; i < size; i++) {
 8003026:	2900      	cmp	r1, #0
 8003028:	f000 809b 	beq.w	8003162 <simpleserial_put+0x156>
 800302c:	4611      	mov	r1, r2
		data_buf[i + 3] = output[i];
 800302e:	f10d 0003 	add.w	r0, sp, #3
 8003032:	4622      	mov	r2, r4
 8003034:	f7fd fbfc 	bl	8000830 <memcpy>
	stuff_data(data_buf, i + 5);
 8003038:	1d61      	adds	r1, r4, #5
	while (len--) {
 800303a:	1c63      	adds	r3, r4, #1
 800303c:	2cfe      	cmp	r4, #254	; 0xfe
	data_buf[i + 3] = ss_crc(data_buf+1, size+2);
 800303e:	f104 0e03 	add.w	lr, r4, #3
	data_buf[i + 4] = 0x00;
 8003042:	f104 0c04 	add.w	ip, r4, #4
	stuff_data(data_buf, i + 5);
 8003046:	b2c9      	uxtb	r1, r1
	while (len--) {
 8003048:	b2db      	uxtb	r3, r3
 800304a:	f000 8091 	beq.w	8003170 <simpleserial_put+0x164>
 800304e:	3302      	adds	r3, #2
 8003050:	eb0d 0203 	add.w	r2, sp, r3
	uint8_t crc = 0x00;
 8003054:	f10d 0001 	add.w	r0, sp, #1
 8003058:	2300      	movs	r3, #0
 800305a:	e027      	b.n	80030ac <simpleserial_put+0xa0>
			crc = crc & 0x80 ? (crc << 1) ^ CW_CRC: crc << 1;
 800305c:	b2dd      	uxtb	r5, r3
 800305e:	b25b      	sxtb	r3, r3
 8003060:	2b00      	cmp	r3, #0
 8003062:	db31      	blt.n	80030c8 <simpleserial_put+0xbc>
 8003064:	006b      	lsls	r3, r5, #1
 8003066:	b2dd      	uxtb	r5, r3
 8003068:	b25b      	sxtb	r3, r3
 800306a:	2b00      	cmp	r3, #0
 800306c:	db33      	blt.n	80030d6 <simpleserial_put+0xca>
 800306e:	006d      	lsls	r5, r5, #1
 8003070:	b2eb      	uxtb	r3, r5
 8003072:	b26d      	sxtb	r5, r5
 8003074:	2d00      	cmp	r5, #0
 8003076:	db35      	blt.n	80030e4 <simpleserial_put+0xd8>
 8003078:	005d      	lsls	r5, r3, #1
 800307a:	b2eb      	uxtb	r3, r5
 800307c:	b26d      	sxtb	r5, r5
 800307e:	2d00      	cmp	r5, #0
 8003080:	db37      	blt.n	80030f2 <simpleserial_put+0xe6>
 8003082:	005d      	lsls	r5, r3, #1
 8003084:	b2eb      	uxtb	r3, r5
 8003086:	b26d      	sxtb	r5, r5
 8003088:	2d00      	cmp	r5, #0
 800308a:	db39      	blt.n	8003100 <simpleserial_put+0xf4>
 800308c:	005d      	lsls	r5, r3, #1
 800308e:	b2eb      	uxtb	r3, r5
 8003090:	b26d      	sxtb	r5, r5
 8003092:	2d00      	cmp	r5, #0
 8003094:	db3b      	blt.n	800310e <simpleserial_put+0x102>
 8003096:	005d      	lsls	r5, r3, #1
 8003098:	b2eb      	uxtb	r3, r5
 800309a:	b26d      	sxtb	r5, r5
 800309c:	005b      	lsls	r3, r3, #1
 800309e:	2d00      	cmp	r5, #0
 80030a0:	bfb8      	it	lt
 80030a2:	f083 034d 	eorlt.w	r3, r3, #77	; 0x4d
	while (len--) {
 80030a6:	4290      	cmp	r0, r2
			crc = crc & 0x80 ? (crc << 1) ^ CW_CRC: crc << 1;
 80030a8:	b2db      	uxtb	r3, r3
	while (len--) {
 80030aa:	d036      	beq.n	800311a <simpleserial_put+0x10e>
		crc ^= *buf++;
 80030ac:	f810 5b01 	ldrb.w	r5, [r0], #1
 80030b0:	406b      	eors	r3, r5
			crc = crc & 0x80 ? (crc << 1) ^ CW_CRC: crc << 1;
 80030b2:	f013 0f80 	tst.w	r3, #128	; 0x80
 80030b6:	ea4f 0343 	mov.w	r3, r3, lsl #1
 80030ba:	d0cf      	beq.n	800305c <simpleserial_put+0x50>
 80030bc:	f083 054d 	eor.w	r5, r3, #77	; 0x4d
 80030c0:	b26b      	sxtb	r3, r5
 80030c2:	2b00      	cmp	r3, #0
 80030c4:	b2ed      	uxtb	r5, r5
 80030c6:	dacd      	bge.n	8003064 <simpleserial_put+0x58>
 80030c8:	006d      	lsls	r5, r5, #1
 80030ca:	f085 054d 	eor.w	r5, r5, #77	; 0x4d
 80030ce:	b26b      	sxtb	r3, r5
 80030d0:	2b00      	cmp	r3, #0
 80030d2:	b2ed      	uxtb	r5, r5
 80030d4:	dacb      	bge.n	800306e <simpleserial_put+0x62>
 80030d6:	006b      	lsls	r3, r5, #1
 80030d8:	f083 034d 	eor.w	r3, r3, #77	; 0x4d
 80030dc:	b25d      	sxtb	r5, r3
 80030de:	2d00      	cmp	r5, #0
 80030e0:	b2db      	uxtb	r3, r3
 80030e2:	dac9      	bge.n	8003078 <simpleserial_put+0x6c>
 80030e4:	005b      	lsls	r3, r3, #1
 80030e6:	f083 034d 	eor.w	r3, r3, #77	; 0x4d
 80030ea:	b25d      	sxtb	r5, r3
 80030ec:	2d00      	cmp	r5, #0
 80030ee:	b2db      	uxtb	r3, r3
 80030f0:	dac7      	bge.n	8003082 <simpleserial_put+0x76>
 80030f2:	005b      	lsls	r3, r3, #1
 80030f4:	f083 034d 	eor.w	r3, r3, #77	; 0x4d
 80030f8:	b25d      	sxtb	r5, r3
 80030fa:	2d00      	cmp	r5, #0
 80030fc:	b2db      	uxtb	r3, r3
 80030fe:	dac5      	bge.n	800308c <simpleserial_put+0x80>
 8003100:	005b      	lsls	r3, r3, #1
 8003102:	f083 034d 	eor.w	r3, r3, #77	; 0x4d
 8003106:	b25d      	sxtb	r5, r3
 8003108:	2d00      	cmp	r5, #0
 800310a:	b2db      	uxtb	r3, r3
 800310c:	dac3      	bge.n	8003096 <simpleserial_put+0x8a>
 800310e:	005b      	lsls	r3, r3, #1
 8003110:	f083 034d 	eor.w	r3, r3, #77	; 0x4d
 8003114:	b25d      	sxtb	r5, r3
 8003116:	b2db      	uxtb	r3, r3
 8003118:	e7c0      	b.n	800309c <simpleserial_put+0x90>
	data_buf[i + 3] = ss_crc(data_buf+1, size+2);
 800311a:	f80d 300e 	strb.w	r3, [sp, lr]
	for (; i < len; i++) {
 800311e:	2901      	cmp	r1, #1
	data_buf[i + 4] = 0x00;
 8003120:	f04f 0300 	mov.w	r3, #0
 8003124:	f80d 300c 	strb.w	r3, [sp, ip]
	for (; i < len; i++) {
 8003128:	d90e      	bls.n	8003148 <simpleserial_put+0x13c>
 800312a:	466a      	mov	r2, sp
	uint8_t last = 0;
 800312c:	2000      	movs	r0, #0
	uint8_t i = 1;
 800312e:	2301      	movs	r3, #1
		if (buf[i] == FRAME_BYTE) {
 8003130:	f812 6f01 	ldrb.w	r6, [r2, #1]!
	for (; i < len; i++) {
 8003134:	1c5d      	adds	r5, r3, #1
			buf[last] = i - last;
 8003136:	eba3 0c00 	sub.w	ip, r3, r0
		if (buf[i] == FRAME_BYTE) {
 800313a:	b916      	cbnz	r6, 8003142 <simpleserial_put+0x136>
			buf[last] = i - last;
 800313c:	f80d c000 	strb.w	ip, [sp, r0]
 8003140:	4618      	mov	r0, r3
	for (; i < len; i++) {
 8003142:	b2eb      	uxtb	r3, r5
 8003144:	428b      	cmp	r3, r1
 8003146:	d1f3      	bne.n	8003130 <simpleserial_put+0x124>
	for (int i = 0; i < size + 5; i++) {
 8003148:	f10d 0305 	add.w	r3, sp, #5
 800314c:	466d      	mov	r5, sp
 800314e:	441c      	add	r4, r3
		putch(data_buf[i]);
 8003150:	f815 0b01 	ldrb.w	r0, [r5], #1
 8003154:	f000 f8f8 	bl	8003348 <putch>
	for (int i = 0; i < size + 5; i++) {
 8003158:	42ac      	cmp	r4, r5
 800315a:	d1f9      	bne.n	8003150 <simpleserial_put+0x144>
}
 800315c:	b040      	add	sp, #256	; 0x100
 800315e:	bd70      	pop	{r4, r5, r6, pc}
 8003160:	4770      	bx	lr
	while (len--) {
 8003162:	2301      	movs	r3, #1
 8003164:	f04f 0c04 	mov.w	ip, #4
 8003168:	2105      	movs	r1, #5
 800316a:	f04f 0e03 	mov.w	lr, #3
 800316e:	e76e      	b.n	800304e <simpleserial_put+0x42>
	data_buf[i + 3] = ss_crc(data_buf+1, size+2);
 8003170:	f80d 500e 	strb.w	r5, [sp, lr]
	data_buf[i + 4] = 0x00;
 8003174:	2103      	movs	r1, #3
 8003176:	f80d 500c 	strb.w	r5, [sp, ip]
	for (; i < len; i++) {
 800317a:	e7d6      	b.n	800312a <simpleserial_put+0x11e>

0800317c <ss_get_commands>:
{
 800317c:	b510      	push	{r4, lr}
    for (uint8_t i = 0; i < (num_commands & 0xFF); i++) {
 800317e:	4c0d      	ldr	r4, [pc, #52]	; (80031b4 <ss_get_commands+0x38>)
 8003180:	7821      	ldrb	r1, [r4, #0]
{
 8003182:	b084      	sub	sp, #16
    for (uint8_t i = 0; i < (num_commands & 0xFF); i++) {
 8003184:	b179      	cbz	r1, 80031a6 <ss_get_commands+0x2a>
 8003186:	2300      	movs	r3, #0
 8003188:	461a      	mov	r2, r3
        cmd_chars[i] = commands[i].c;
 800318a:	eb02 0042 	add.w	r0, r2, r2, lsl #1
 800318e:	eb04 0080 	add.w	r0, r4, r0, lsl #2
 8003192:	3210      	adds	r2, #16
    for (uint8_t i = 0; i < (num_commands & 0xFF); i++) {
 8003194:	3301      	adds	r3, #1
        cmd_chars[i] = commands[i].c;
 8003196:	446a      	add	r2, sp
    for (uint8_t i = 0; i < (num_commands & 0xFF); i++) {
 8003198:	b2db      	uxtb	r3, r3
        cmd_chars[i] = commands[i].c;
 800319a:	7900      	ldrb	r0, [r0, #4]
 800319c:	f802 0c10 	strb.w	r0, [r2, #-16]
    for (uint8_t i = 0; i < (num_commands & 0xFF); i++) {
 80031a0:	428b      	cmp	r3, r1
 80031a2:	461a      	mov	r2, r3
 80031a4:	dbf1      	blt.n	800318a <ss_get_commands+0xe>
    simpleserial_put('r', num_commands & 0xFF, (void *)cmd_chars);
 80031a6:	2072      	movs	r0, #114	; 0x72
 80031a8:	466a      	mov	r2, sp
 80031aa:	f7ff ff2f 	bl	800300c <simpleserial_put>
}
 80031ae:	2000      	movs	r0, #0
 80031b0:	b004      	add	sp, #16
 80031b2:	bd10      	pop	{r4, pc}
 80031b4:	2000085c 	.word	0x2000085c

080031b8 <platform_init>:

uint8_t hw_key[16];
static CRYP_HandleTypeDef cryp;

void platform_init(void)
{
 80031b8:	b530      	push	{r4, r5, lr}
 80031ba:	b095      	sub	sp, #84	; 0x54
	HAL_RCC_ClockConfig(&RCC_ClkInitStruct, FLASH_ACR_LATENCY_5WS);
    FLASH->ACR |= 0b111 << 8; //enable ART acceleration

#else
	RCC_OscInitTypeDef RCC_OscInitStruct;
	RCC_OscInitStruct.OscillatorType = RCC_OSCILLATORTYPE_HSE | RCC_OSCILLATORTYPE_HSI;
 80031bc:	2403      	movs	r4, #3
	RCC_OscInitStruct.HSEState       = RCC_HSE_BYPASS;
	RCC_OscInitStruct.HSIState       = RCC_HSI_ON;  // HSI is needed for the RNG
 80031be:	2201      	movs	r2, #1
	RCC_OscInitStruct.PLL.PLLState   = RCC_PLL_ON;  // we need PLL to use RNG
 80031c0:	2002      	movs	r0, #2
	RCC_OscInitStruct.PLL.PLLSource  = RCC_PLLSOURCE_HSE;
 80031c2:	f44f 0380 	mov.w	r3, #4194304	; 0x400000
	RCC_OscInitStruct.OscillatorType = RCC_OSCILLATORTYPE_HSE | RCC_OSCILLATORTYPE_HSI;
 80031c6:	f44f 25a0 	mov.w	r5, #327680	; 0x50000
	RCC_OscInitStruct.PLL.PLLSource  = RCC_PLLSOURCE_HSE;
 80031ca:	e9cd 030e 	strd	r0, r3, [sp, #56]	; 0x38
	RCC_OscInitStruct.OscillatorType = RCC_OSCILLATORTYPE_HSE | RCC_OSCILLATORTYPE_HSI;
 80031ce:	e9cd 4508 	strd	r4, r5, [sp, #32]
	RCC_OscInitStruct.HSIState       = RCC_HSI_ON;  // HSI is needed for the RNG
 80031d2:	920b      	str	r2, [sp, #44]	; 0x2c
	RCC_OscInitStruct.PLL.PLLM       = 12;  // Internal clock is 16MHz
 80031d4:	240c      	movs	r4, #12
	RCC_OscInitStruct.PLL.PLLN       = 196;
 80031d6:	21c4      	movs	r1, #196	; 0xc4
	RCC_OscInitStruct.PLL.PLLP       = RCC_PLLP_DIV4;
 80031d8:	2204      	movs	r2, #4
	RCC_OscInitStruct.PLL.PLLQ       = 7;  // divisor for RNG, USB and SDIO
 80031da:	2307      	movs	r3, #7
	if (HAL_RCC_OscConfig(&RCC_OscInitStruct) != HAL_OK) {
 80031dc:	a808      	add	r0, sp, #32
	RCC_OscInitStruct.PLL.PLLN       = 196;
 80031de:	e9cd 4110 	strd	r4, r1, [sp, #64]	; 0x40
	RCC_OscInitStruct.PLL.PLLQ       = 7;  // divisor for RNG, USB and SDIO
 80031e2:	e9cd 2312 	strd	r2, r3, [sp, #72]	; 0x48
	if (HAL_RCC_OscConfig(&RCC_OscInitStruct) != HAL_OK) {
 80031e6:	f000 f8c1 	bl	800336c <HAL_RCC_OscConfig>
 80031ea:	b100      	cbz	r0, 80031ee <platform_init+0x36>
        for(;;);
 80031ec:	e7fe      	b.n	80031ec <platform_init+0x34>

	RCC_ClkInitTypeDef RCC_ClkInitStruct;
	RCC_ClkInitStruct.ClockType      = (RCC_CLOCKTYPE_SYSCLK | RCC_CLOCKTYPE_HCLK | RCC_CLOCKTYPE_PCLK1 | RCC_CLOCKTYPE_PCLK2);
	RCC_ClkInitStruct.SYSCLKSource   = RCC_SYSCLKSOURCE_HSE;
	RCC_ClkInitStruct.AHBCLKDivider  = RCC_SYSCLK_DIV1;
	RCC_ClkInitStruct.APB1CLKDivider = RCC_HCLK_DIV1;
 80031ee:	4604      	mov	r4, r0
	RCC_ClkInitStruct.ClockType      = (RCC_CLOCKTYPE_SYSCLK | RCC_CLOCKTYPE_HCLK | RCC_CLOCKTYPE_PCLK1 | RCC_CLOCKTYPE_PCLK2);
 80031f0:	2101      	movs	r1, #1
 80031f2:	200f      	movs	r0, #15
 80031f4:	e9cd 0102 	strd	r0, r1, [sp, #8]
 80031f8:	2200      	movs	r2, #0
 80031fa:	2300      	movs	r3, #0
	RCC_ClkInitStruct.APB2CLKDivider = RCC_HCLK_DIV1;
	HAL_RCC_ClockConfig(&RCC_ClkInitStruct, FLASH_ACR_LATENCY_0WS); //wait states not needed for HSE
 80031fc:	4621      	mov	r1, r4
 80031fe:	a802      	add	r0, sp, #8
	RCC_ClkInitStruct.ClockType      = (RCC_CLOCKTYPE_SYSCLK | RCC_CLOCKTYPE_HCLK | RCC_CLOCKTYPE_PCLK1 | RCC_CLOCKTYPE_PCLK2);
 8003200:	e9cd 2304 	strd	r2, r3, [sp, #16]
	RCC_ClkInitStruct.APB2CLKDivider = RCC_HCLK_DIV1;
 8003204:	9406      	str	r4, [sp, #24]
	HAL_RCC_ClockConfig(&RCC_ClkInitStruct, FLASH_ACR_LATENCY_0WS); //wait states not needed for HSE
 8003206:	f000 fac9 	bl	800379c <HAL_RCC_ClockConfig>
#endif

	// Configure and starts the RNG
	__HAL_RCC_RNG_CLK_ENABLE();
 800320a:	4b09      	ldr	r3, [pc, #36]	; (8003230 <platform_init+0x78>)
 800320c:	9401      	str	r4, [sp, #4]
 800320e:	6b5a      	ldr	r2, [r3, #52]	; 0x34
	RngHandle.Instance = RNG;
 8003210:	4808      	ldr	r0, [pc, #32]	; (8003234 <platform_init+0x7c>)
	__HAL_RCC_RNG_CLK_ENABLE();
 8003212:	f042 0240 	orr.w	r2, r2, #64	; 0x40
 8003216:	635a      	str	r2, [r3, #52]	; 0x34
 8003218:	6b5b      	ldr	r3, [r3, #52]	; 0x34
	RngHandle.Instance = RNG;
 800321a:	4a07      	ldr	r2, [pc, #28]	; (8003238 <platform_init+0x80>)
 800321c:	6002      	str	r2, [r0, #0]
	__HAL_RCC_RNG_CLK_ENABLE();
 800321e:	f003 0340 	and.w	r3, r3, #64	; 0x40
 8003222:	9301      	str	r3, [sp, #4]
 8003224:	9b01      	ldr	r3, [sp, #4]
	RngHandle.State = HAL_RNG_STATE_RESET;
 8003226:	7144      	strb	r4, [r0, #5]
	HAL_RNG_Init(&RngHandle);
 8003228:	f000 fe0e 	bl	8003e48 <HAL_RNG_Init>

}
 800322c:	b015      	add	sp, #84	; 0x54
 800322e:	bd30      	pop	{r4, r5, pc}
 8003230:	40023800 	.word	0x40023800
 8003234:	20000920 	.word	0x20000920
 8003238:	50060800 	.word	0x50060800

0800323c <init_uart>:

void init_uart(void)
{
 800323c:	b530      	push	{r4, r5, lr}
	GPIO_InitTypeDef GpioInit;
	GpioInit.Pin       = GPIO_PIN_9 | GPIO_PIN_10;
 800323e:	2201      	movs	r2, #1
{
 8003240:	b089      	sub	sp, #36	; 0x24
	GpioInit.Pin       = GPIO_PIN_9 | GPIO_PIN_10;
 8003242:	f44f 60c0 	mov.w	r0, #1536	; 0x600
 8003246:	2102      	movs	r1, #2
 8003248:	2302      	movs	r3, #2
 800324a:	e9cd 0102 	strd	r0, r1, [sp, #8]
 800324e:	e9cd 2304 	strd	r2, r3, [sp, #16]
	GpioInit.Mode      = GPIO_MODE_AF_PP;
	GpioInit.Pull      = GPIO_PULLUP;
	GpioInit.Speed     = GPIO_SPEED_FREQ_HIGH;
	GpioInit.Alternate = GPIO_AF7_USART1;
	__GPIOA_CLK_ENABLE();
 8003252:	4d17      	ldr	r5, [pc, #92]	; (80032b0 <init_uart+0x74>)
	HAL_GPIO_Init(GPIOA, &GpioInit);
 8003254:	4817      	ldr	r0, [pc, #92]	; (80032b4 <init_uart+0x78>)
	__GPIOA_CLK_ENABLE();
 8003256:	2400      	movs	r4, #0
	GpioInit.Alternate = GPIO_AF7_USART1;
 8003258:	2307      	movs	r3, #7
	__GPIOA_CLK_ENABLE();
 800325a:	9400      	str	r4, [sp, #0]
	GpioInit.Alternate = GPIO_AF7_USART1;
 800325c:	9306      	str	r3, [sp, #24]
	__GPIOA_CLK_ENABLE();
 800325e:	6b2b      	ldr	r3, [r5, #48]	; 0x30
 8003260:	f043 0301 	orr.w	r3, r3, #1
 8003264:	632b      	str	r3, [r5, #48]	; 0x30
 8003266:	6b2b      	ldr	r3, [r5, #48]	; 0x30
 8003268:	f003 0301 	and.w	r3, r3, #1
	HAL_GPIO_Init(GPIOA, &GpioInit);
 800326c:	a902      	add	r1, sp, #8
	__GPIOA_CLK_ENABLE();
 800326e:	9300      	str	r3, [sp, #0]
 8003270:	9b00      	ldr	r3, [sp, #0]
	HAL_GPIO_Init(GPIOA, &GpioInit);
 8003272:	f000 fb61 	bl	8003938 <HAL_GPIO_Init>
	UartHandle.Init.WordLength = UART_WORDLENGTH_8B;
	UartHandle.Init.StopBits   = UART_STOPBITS_1;
	UartHandle.Init.Parity     = UART_PARITY_NONE;
	UartHandle.Init.HwFlowCtl  = UART_HWCONTROL_NONE;
	UartHandle.Init.Mode       = UART_MODE_TX_RX;
	__USART1_CLK_ENABLE();
 8003276:	9401      	str	r4, [sp, #4]
 8003278:	6c6a      	ldr	r2, [r5, #68]	; 0x44
	UartHandle.Instance        = USART1;
 800327a:	4b0f      	ldr	r3, [pc, #60]	; (80032b8 <init_uart+0x7c>)
	__USART1_CLK_ENABLE();
 800327c:	f042 0210 	orr.w	r2, r2, #16
 8003280:	646a      	str	r2, [r5, #68]	; 0x44
 8003282:	6c6a      	ldr	r2, [r5, #68]	; 0x44
	UartHandle.Init.Parity     = UART_PARITY_NONE;
 8003284:	61dc      	str	r4, [r3, #28]
	__USART1_CLK_ENABLE();
 8003286:	f002 0210 	and.w	r2, r2, #16
 800328a:	9201      	str	r2, [sp, #4]
 800328c:	9a01      	ldr	r2, [sp, #4]
  UartHandle.Init.BaudRate   = 230400;
 800328e:	f44f 3161 	mov.w	r1, #230400	; 0x38400
	UartHandle.Init.Mode       = UART_MODE_TX_RX;
 8003292:	220c      	movs	r2, #12
	UartHandle.Instance        = USART1;
 8003294:	f5a5 3594 	sub.w	r5, r5, #75776	; 0x12800
	HAL_UART_Init(&UartHandle);
 8003298:	f103 000c 	add.w	r0, r3, #12
  UartHandle.Init.BaudRate   = 230400;
 800329c:	e9c3 5103 	strd	r5, r1, [r3, #12]
	UartHandle.Init.StopBits   = UART_STOPBITS_1;
 80032a0:	e9c3 4405 	strd	r4, r4, [r3, #20]
	UartHandle.Init.Mode       = UART_MODE_TX_RX;
 80032a4:	e9c3 2408 	strd	r2, r4, [r3, #32]
	HAL_UART_Init(&UartHandle);
 80032a8:	f000 fc7c 	bl	8003ba4 <HAL_UART_Init>
}
 80032ac:	b009      	add	sp, #36	; 0x24
 80032ae:	bd30      	pop	{r4, r5, pc}
 80032b0:	40023800 	.word	0x40023800
 80032b4:	40020000 	.word	0x40020000
 80032b8:	20000920 	.word	0x20000920

080032bc <trigger_setup>:

//#define STM32F4_WLCSP

void trigger_setup(void)
{
 80032bc:	b530      	push	{r4, r5, lr}
 80032be:	b089      	sub	sp, #36	; 0x24
	__GPIOA_CLK_ENABLE();
 80032c0:	4b0d      	ldr	r3, [pc, #52]	; (80032f8 <trigger_setup+0x3c>)
	GPIO_InitTypeDef GpioInit;
	GpioInit.Pin       = GPIO_PIN_12;
	GpioInit.Mode      = GPIO_MODE_OUTPUT_PP;
	GpioInit.Pull      = GPIO_NOPULL;
	GpioInit.Speed     = GPIO_SPEED_FREQ_HIGH;
	HAL_GPIO_Init(GPIOA, &GpioInit);
 80032c2:	480e      	ldr	r0, [pc, #56]	; (80032fc <trigger_setup+0x40>)
	__GPIOA_CLK_ENABLE();
 80032c4:	2200      	movs	r2, #0
 80032c6:	9201      	str	r2, [sp, #4]
 80032c8:	6b1a      	ldr	r2, [r3, #48]	; 0x30
 80032ca:	f042 0201 	orr.w	r2, r2, #1
 80032ce:	631a      	str	r2, [r3, #48]	; 0x30
 80032d0:	6b1b      	ldr	r3, [r3, #48]	; 0x30
 80032d2:	f003 0301 	and.w	r3, r3, #1
 80032d6:	9301      	str	r3, [sp, #4]
	GpioInit.Pin       = GPIO_PIN_12;
 80032d8:	2200      	movs	r2, #0
 80032da:	f44f 5480 	mov.w	r4, #4096	; 0x1000
 80032de:	2501      	movs	r5, #1
 80032e0:	2302      	movs	r3, #2
	HAL_GPIO_Init(GPIOA, &GpioInit);
 80032e2:	a902      	add	r1, sp, #8
	GpioInit.Pin       = GPIO_PIN_12;
 80032e4:	e9cd 2304 	strd	r2, r3, [sp, #16]
 80032e8:	e9cd 4502 	strd	r4, r5, [sp, #8]
	__GPIOA_CLK_ENABLE();
 80032ec:	9b01      	ldr	r3, [sp, #4]
	HAL_GPIO_Init(GPIOA, &GpioInit);
 80032ee:	f000 fb23 	bl	8003938 <HAL_GPIO_Init>
#endif
}
 80032f2:	b009      	add	sp, #36	; 0x24
 80032f4:	bd30      	pop	{r4, r5, pc}
 80032f6:	bf00      	nop
 80032f8:	40023800 	.word	0x40023800
 80032fc:	40020000 	.word	0x40020000

08003300 <trigger_high>:
void trigger_high(void)
{
#ifdef STM32F4_WLCSP
    HAL_GPIO_WritePin(GPIOD, GPIO_PIN_4, SET);
#else
	HAL_GPIO_WritePin(GPIOA, GPIO_PIN_12, SET);
 8003300:	4802      	ldr	r0, [pc, #8]	; (800330c <trigger_high+0xc>)
 8003302:	2201      	movs	r2, #1
 8003304:	f44f 5180 	mov.w	r1, #4096	; 0x1000
 8003308:	f000 bc48 	b.w	8003b9c <HAL_GPIO_WritePin>
 800330c:	40020000 	.word	0x40020000

08003310 <trigger_low>:
void trigger_low(void)
{
#ifdef STM32F4_WLCSP
    HAL_GPIO_WritePin(GPIOD, GPIO_PIN_4, RESET);
#else
	HAL_GPIO_WritePin(GPIOA, GPIO_PIN_12, RESET);
 8003310:	4802      	ldr	r0, [pc, #8]	; (800331c <trigger_low+0xc>)
 8003312:	2200      	movs	r2, #0
 8003314:	f44f 5180 	mov.w	r1, #4096	; 0x1000
 8003318:	f000 bc40 	b.w	8003b9c <HAL_GPIO_WritePin>
 800331c:	40020000 	.word	0x40020000

08003320 <getch>:
#endif
}
char getch(void)
{
 8003320:	b510      	push	{r4, lr}
	uint8_t d;
	while (HAL_UART_Receive(&UartHandle, &d, 1, 5000) != HAL_OK);
 8003322:	4c08      	ldr	r4, [pc, #32]	; (8003344 <getch+0x24>)
{
 8003324:	b082      	sub	sp, #8
	while (HAL_UART_Receive(&UartHandle, &d, 1, 5000) != HAL_OK);
 8003326:	f241 3388 	movw	r3, #5000	; 0x1388
 800332a:	2201      	movs	r2, #1
 800332c:	f10d 0107 	add.w	r1, sp, #7
 8003330:	4620      	mov	r0, r4
 8003332:	f000 fd03 	bl	8003d3c <HAL_UART_Receive>
 8003336:	2800      	cmp	r0, #0
 8003338:	d1f5      	bne.n	8003326 <getch+0x6>
	return d;
}
 800333a:	f89d 0007 	ldrb.w	r0, [sp, #7]
 800333e:	b002      	add	sp, #8
 8003340:	bd10      	pop	{r4, pc}
 8003342:	bf00      	nop
 8003344:	2000092c 	.word	0x2000092c

08003348 <putch>:

void putch(char c)
{
 8003348:	b500      	push	{lr}
 800334a:	b083      	sub	sp, #12
 800334c:	4684      	mov	ip, r0
	uint8_t d  = c;
	HAL_UART_Transmit(&UartHandle,  &d, 1, 5000);
 800334e:	f241 3388 	movw	r3, #5000	; 0x1388
 8003352:	2201      	movs	r2, #1
 8003354:	f10d 0107 	add.w	r1, sp, #7
 8003358:	4803      	ldr	r0, [pc, #12]	; (8003368 <putch+0x20>)
	uint8_t d  = c;
 800335a:	f88d c007 	strb.w	ip, [sp, #7]
	HAL_UART_Transmit(&UartHandle,  &d, 1, 5000);
 800335e:	f000 fc9f 	bl	8003ca0 <HAL_UART_Transmit>
}
 8003362:	b003      	add	sp, #12
 8003364:	f85d fb04 	ldr.w	pc, [sp], #4
 8003368:	2000092c 	.word	0x2000092c

0800336c <HAL_RCC_OscConfig>:
  *         supported by this API. User should request a transition to HSE Off
  *         first and then HSE On or HSE Bypass.
  * @retval HAL status
  */
HAL_StatusTypeDef HAL_RCC_OscConfig(RCC_OscInitTypeDef  *RCC_OscInitStruct)
{
 800336c:	b4f0      	push	{r4, r5, r6, r7}
  uint32_t tickstart = 0U;

  /* Check the parameters */
  assert_param(IS_RCC_OSCILLATORTYPE(RCC_OscInitStruct->OscillatorType));
  /*------------------------------- HSE Configuration ------------------------*/
  if(((RCC_OscInitStruct->OscillatorType) & RCC_OSCILLATORTYPE_HSE) == RCC_OSCILLATORTYPE_HSE)
 800336e:	6801      	ldr	r1, [r0, #0]
 8003370:	07cf      	lsls	r7, r1, #31
{
 8003372:	b082      	sub	sp, #8
  if(((RCC_OscInitStruct->OscillatorType) & RCC_OSCILLATORTYPE_HSE) == RCC_OSCILLATORTYPE_HSE)
 8003374:	d532      	bpl.n	80033dc <HAL_RCC_OscConfig+0x70>
  {
    /* Check the parameters */
    assert_param(IS_RCC_HSE(RCC_OscInitStruct->HSEState));
    /* When the HSE is used as system clock or clock source for PLL in these cases HSE will not disabled */
    if((__HAL_RCC_GET_SYSCLK_SOURCE() == RCC_CFGR_SWS_HSE) ||\
 8003376:	4a94      	ldr	r2, [pc, #592]	; (80035c8 <HAL_RCC_OscConfig+0x25c>)
 8003378:	6893      	ldr	r3, [r2, #8]
 800337a:	f003 030c 	and.w	r3, r3, #12
 800337e:	2b04      	cmp	r3, #4
 8003380:	f000 8108 	beq.w	8003594 <HAL_RCC_OscConfig+0x228>
      ((__HAL_RCC_GET_SYSCLK_SOURCE() == RCC_CFGR_SWS_PLL) && ((RCC->PLLCFGR & RCC_PLLCFGR_PLLSRC) == RCC_PLLCFGR_PLLSRC_HSE)))
 8003384:	6893      	ldr	r3, [r2, #8]
 8003386:	f003 030c 	and.w	r3, r3, #12
    if((__HAL_RCC_GET_SYSCLK_SOURCE() == RCC_CFGR_SWS_HSE) ||\
 800338a:	2b08      	cmp	r3, #8
 800338c:	f000 80fe 	beq.w	800358c <HAL_RCC_OscConfig+0x220>
      }
    }
    else
    {
      /* Set the new HSE configuration ---------------------------------------*/
      __HAL_RCC_HSE_CONFIG(RCC_OscInitStruct->HSEState);
 8003390:	6845      	ldr	r5, [r0, #4]
 8003392:	f5b5 3f80 	cmp.w	r5, #65536	; 0x10000
 8003396:	f000 8132 	beq.w	80035fe <HAL_RCC_OscConfig+0x292>
 800339a:	f5b5 2fa0 	cmp.w	r5, #327680	; 0x50000
 800339e:	f000 8187 	beq.w	80036b0 <HAL_RCC_OscConfig+0x344>
 80033a2:	4e89      	ldr	r6, [pc, #548]	; (80035c8 <HAL_RCC_OscConfig+0x25c>)
 80033a4:	6833      	ldr	r3, [r6, #0]
 80033a6:	f423 3380 	bic.w	r3, r3, #65536	; 0x10000
 80033aa:	6033      	str	r3, [r6, #0]
 80033ac:	6833      	ldr	r3, [r6, #0]
 80033ae:	f423 2380 	bic.w	r3, r3, #262144	; 0x40000
 80033b2:	6033      	str	r3, [r6, #0]

      /* Check the HSE State */
      if((RCC_OscInitStruct->HSEState) != RCC_HSE_OFF)
 80033b4:	2d00      	cmp	r5, #0
 80033b6:	f040 8127 	bne.w	8003608 <HAL_RCC_OscConfig+0x29c>
	return tick++;;
 80033ba:	4b84      	ldr	r3, [pc, #528]	; (80035cc <HAL_RCC_OscConfig+0x260>)
 80033bc:	4f84      	ldr	r7, [pc, #528]	; (80035d0 <HAL_RCC_OscConfig+0x264>)
 80033be:	681a      	ldr	r2, [r3, #0]
 80033c0:	4417      	add	r7, r2
 80033c2:	3201      	adds	r2, #1
 80033c4:	601a      	str	r2, [r3, #0]
      {
        /* Get Start Tick*/
        tickstart = HAL_GetTick();

        /* Wait till HSE is bypassed or disabled */
        while(__HAL_RCC_GET_FLAG(RCC_FLAG_HSERDY) != RESET)
 80033c6:	e004      	b.n	80033d2 <HAL_RCC_OscConfig+0x66>
	return tick++;;
 80033c8:	3201      	adds	r2, #1
        {
          if((HAL_GetTick() - tickstart ) > HSE_TIMEOUT_VALUE)
 80033ca:	42ba      	cmp	r2, r7
 80033cc:	f04f 0501 	mov.w	r5, #1
 80033d0:	d055      	beq.n	800347e <HAL_RCC_OscConfig+0x112>
        while(__HAL_RCC_GET_FLAG(RCC_FLAG_HSERDY) != RESET)
 80033d2:	6834      	ldr	r4, [r6, #0]
 80033d4:	03a4      	lsls	r4, r4, #14
 80033d6:	d4f7      	bmi.n	80033c8 <HAL_RCC_OscConfig+0x5c>
 80033d8:	b105      	cbz	r5, 80033dc <HAL_RCC_OscConfig+0x70>
 80033da:	601a      	str	r2, [r3, #0]
        }
      }
    }
  }
  /*----------------------------- HSI Configuration --------------------------*/
  if(((RCC_OscInitStruct->OscillatorType) & RCC_OSCILLATORTYPE_HSI) == RCC_OSCILLATORTYPE_HSI)
 80033dc:	078a      	lsls	r2, r1, #30
 80033de:	d533      	bpl.n	8003448 <HAL_RCC_OscConfig+0xdc>
    /* Check the parameters */
    assert_param(IS_RCC_HSI(RCC_OscInitStruct->HSIState));
    assert_param(IS_RCC_CALIBRATION_VALUE(RCC_OscInitStruct->HSICalibrationValue));

    /* Check if HSI is used as system clock or as PLL source when PLL is selected as system clock */
    if((__HAL_RCC_GET_SYSCLK_SOURCE() == RCC_CFGR_SWS_HSI) ||\
 80033e0:	4b79      	ldr	r3, [pc, #484]	; (80035c8 <HAL_RCC_OscConfig+0x25c>)
 80033e2:	689a      	ldr	r2, [r3, #8]
 80033e4:	f012 0f0c 	tst.w	r2, #12
 80033e8:	f000 80e2 	beq.w	80035b0 <HAL_RCC_OscConfig+0x244>
      ((__HAL_RCC_GET_SYSCLK_SOURCE() == RCC_CFGR_SWS_PLL) && ((RCC->PLLCFGR & RCC_PLLCFGR_PLLSRC) == RCC_PLLCFGR_PLLSRC_HSI)))
 80033ec:	689a      	ldr	r2, [r3, #8]
 80033ee:	f002 020c 	and.w	r2, r2, #12
    if((__HAL_RCC_GET_SYSCLK_SOURCE() == RCC_CFGR_SWS_HSI) ||\
 80033f2:	2a08      	cmp	r2, #8
 80033f4:	f000 80d8 	beq.w	80035a8 <HAL_RCC_OscConfig+0x23c>
      }
    }
    else
    {
      /* Check the HSI State */
      if((RCC_OscInitStruct->HSIState)!= RCC_HSI_OFF)
 80033f8:	68c2      	ldr	r2, [r0, #12]
 80033fa:	2a00      	cmp	r2, #0
 80033fc:	f000 8140 	beq.w	8003680 <HAL_RCC_OscConfig+0x314>
      {
        /* Enable the Internal High Speed oscillator (HSI). */
        __HAL_RCC_HSI_ENABLE();
 8003400:	4a74      	ldr	r2, [pc, #464]	; (80035d4 <HAL_RCC_OscConfig+0x268>)
	return tick++;;
 8003402:	4b72      	ldr	r3, [pc, #456]	; (80035cc <HAL_RCC_OscConfig+0x260>)
        __HAL_RCC_HSI_ENABLE();
 8003404:	2101      	movs	r1, #1
 8003406:	6011      	str	r1, [r2, #0]
	return tick++;;
 8003408:	681a      	ldr	r2, [r3, #0]

        /* Get Start Tick*/
        tickstart = HAL_GetTick();

        /* Wait till HSI is ready */
        while(__HAL_RCC_GET_FLAG(RCC_FLAG_HSIRDY) == RESET)
 800340a:	496f      	ldr	r1, [pc, #444]	; (80035c8 <HAL_RCC_OscConfig+0x25c>)
	return tick++;;
 800340c:	1c54      	adds	r4, r2, #1
 800340e:	601c      	str	r4, [r3, #0]
        while(__HAL_RCC_GET_FLAG(RCC_FLAG_HSIRDY) == RESET)
 8003410:	680c      	ldr	r4, [r1, #0]
 8003412:	07a6      	lsls	r6, r4, #30
 8003414:	d40a      	bmi.n	800342c <HAL_RCC_OscConfig+0xc0>
 8003416:	680d      	ldr	r5, [r1, #0]
 8003418:	07ad      	lsls	r5, r5, #30
	return tick++;;
 800341a:	f102 0402 	add.w	r4, r2, #2
        while(__HAL_RCC_GET_FLAG(RCC_FLAG_HSIRDY) == RESET)
 800341e:	d404      	bmi.n	800342a <HAL_RCC_OscConfig+0xbe>
 8003420:	6809      	ldr	r1, [r1, #0]
 8003422:	078f      	lsls	r7, r1, #30
	return tick++;;
 8003424:	f102 0403 	add.w	r4, r2, #3
        while(__HAL_RCC_GET_FLAG(RCC_FLAG_HSIRDY) == RESET)
 8003428:	d528      	bpl.n	800347c <HAL_RCC_OscConfig+0x110>
 800342a:	601c      	str	r4, [r3, #0]
            return HAL_TIMEOUT;
          }
        }

        /* Adjusts the Internal High Speed oscillator (HSI) calibration value.*/
        __HAL_RCC_HSI_CALIBRATIONVALUE_ADJUST(RCC_OscInitStruct->HSICalibrationValue);
 800342c:	4c66      	ldr	r4, [pc, #408]	; (80035c8 <HAL_RCC_OscConfig+0x25c>)
__attribute__((always_inline)) __STATIC_INLINE uint32_t __RBIT(uint32_t value)
{
  uint32_t result;

#if       (__CORTEX_M >= 0x03U) || (__CORTEX_SC >= 300U)
   __ASM volatile ("rbit %0, %1" : "=r" (result) : "r" (value) );
 800342e:	22f8      	movs	r2, #248	; 0xf8
 8003430:	6821      	ldr	r1, [r4, #0]
 8003432:	fa92 f2a2 	rbit	r2, r2
 8003436:	6903      	ldr	r3, [r0, #16]
 8003438:	fab2 f282 	clz	r2, r2
 800343c:	4093      	lsls	r3, r2
 800343e:	f021 02f8 	bic.w	r2, r1, #248	; 0xf8
 8003442:	4313      	orrs	r3, r2
 8003444:	6023      	str	r3, [r4, #0]
        }
      }
    }
  }
  /*------------------------------ LSI Configuration -------------------------*/
  if(((RCC_OscInitStruct->OscillatorType) & RCC_OSCILLATORTYPE_LSI) == RCC_OSCILLATORTYPE_LSI)
 8003446:	6801      	ldr	r1, [r0, #0]
 8003448:	070f      	lsls	r7, r1, #28
 800344a:	d536      	bpl.n	80034ba <HAL_RCC_OscConfig+0x14e>
  {
    /* Check the parameters */
    assert_param(IS_RCC_LSI(RCC_OscInitStruct->LSIState));

    /* Check the LSI State */
    if((RCC_OscInitStruct->LSIState)!= RCC_LSI_OFF)
 800344c:	6942      	ldr	r2, [r0, #20]
 800344e:	b9da      	cbnz	r2, 8003488 <HAL_RCC_OscConfig+0x11c>
      }
    }
    else
    {
      /* Disable the Internal Low Speed oscillator (LSI). */
      __HAL_RCC_LSI_DISABLE();
 8003450:	4960      	ldr	r1, [pc, #384]	; (80035d4 <HAL_RCC_OscConfig+0x268>)
	return tick++;;
 8003452:	4b5e      	ldr	r3, [pc, #376]	; (80035cc <HAL_RCC_OscConfig+0x260>)
      __HAL_RCC_LSI_DISABLE();
 8003454:	f8c1 2e80 	str.w	r2, [r1, #3712]	; 0xe80
	return tick++;;
 8003458:	681a      	ldr	r2, [r3, #0]

      /* Get Start Tick*/
      tickstart = HAL_GetTick();

      /* Wait till LSI is ready */
      while(__HAL_RCC_GET_FLAG(RCC_FLAG_LSIRDY) != RESET)
 800345a:	495b      	ldr	r1, [pc, #364]	; (80035c8 <HAL_RCC_OscConfig+0x25c>)
	return tick++;;
 800345c:	1c54      	adds	r4, r2, #1
 800345e:	601c      	str	r4, [r3, #0]
      while(__HAL_RCC_GET_FLAG(RCC_FLAG_LSIRDY) != RESET)
 8003460:	6f4c      	ldr	r4, [r1, #116]	; 0x74
 8003462:	07a6      	lsls	r6, r4, #30
 8003464:	f140 812e 	bpl.w	80036c4 <HAL_RCC_OscConfig+0x358>
 8003468:	6f4d      	ldr	r5, [r1, #116]	; 0x74
 800346a:	07ad      	lsls	r5, r5, #30
	return tick++;;
 800346c:	f102 0402 	add.w	r4, r2, #2
      while(__HAL_RCC_GET_FLAG(RCC_FLAG_LSIRDY) != RESET)
 8003470:	d521      	bpl.n	80034b6 <HAL_RCC_OscConfig+0x14a>
 8003472:	6f49      	ldr	r1, [r1, #116]	; 0x74
 8003474:	0789      	lsls	r1, r1, #30
	return tick++;;
 8003476:	f102 0403 	add.w	r4, r2, #3
      while(__HAL_RCC_GET_FLAG(RCC_FLAG_LSIRDY) != RESET)
 800347a:	d51c      	bpl.n	80034b6 <HAL_RCC_OscConfig+0x14a>
	return tick++;;
 800347c:	3204      	adds	r2, #4
            return HAL_TIMEOUT;
 800347e:	2003      	movs	r0, #3
 8003480:	601a      	str	r2, [r3, #0]
    {
      return HAL_ERROR;
    }
  }
  return HAL_OK;
}
 8003482:	b002      	add	sp, #8
 8003484:	bcf0      	pop	{r4, r5, r6, r7}
 8003486:	4770      	bx	lr
      __HAL_RCC_LSI_ENABLE();
 8003488:	4a52      	ldr	r2, [pc, #328]	; (80035d4 <HAL_RCC_OscConfig+0x268>)
	return tick++;;
 800348a:	4b50      	ldr	r3, [pc, #320]	; (80035cc <HAL_RCC_OscConfig+0x260>)
      __HAL_RCC_LSI_ENABLE();
 800348c:	2101      	movs	r1, #1
 800348e:	f8c2 1e80 	str.w	r1, [r2, #3712]	; 0xe80
	return tick++;;
 8003492:	681a      	ldr	r2, [r3, #0]
      while(__HAL_RCC_GET_FLAG(RCC_FLAG_LSIRDY) == RESET)
 8003494:	494c      	ldr	r1, [pc, #304]	; (80035c8 <HAL_RCC_OscConfig+0x25c>)
	return tick++;;
 8003496:	1c54      	adds	r4, r2, #1
 8003498:	601c      	str	r4, [r3, #0]
      while(__HAL_RCC_GET_FLAG(RCC_FLAG_LSIRDY) == RESET)
 800349a:	6f4c      	ldr	r4, [r1, #116]	; 0x74
 800349c:	07a6      	lsls	r6, r4, #30
 800349e:	f100 8111 	bmi.w	80036c4 <HAL_RCC_OscConfig+0x358>
 80034a2:	6f4d      	ldr	r5, [r1, #116]	; 0x74
 80034a4:	07ad      	lsls	r5, r5, #30
	return tick++;;
 80034a6:	f102 0402 	add.w	r4, r2, #2
      while(__HAL_RCC_GET_FLAG(RCC_FLAG_LSIRDY) == RESET)
 80034aa:	d404      	bmi.n	80034b6 <HAL_RCC_OscConfig+0x14a>
 80034ac:	6f49      	ldr	r1, [r1, #116]	; 0x74
 80034ae:	078f      	lsls	r7, r1, #30
	return tick++;;
 80034b0:	f102 0403 	add.w	r4, r2, #3
      while(__HAL_RCC_GET_FLAG(RCC_FLAG_LSIRDY) == RESET)
 80034b4:	d5e2      	bpl.n	800347c <HAL_RCC_OscConfig+0x110>
  if(((RCC_OscInitStruct->OscillatorType) & RCC_OSCILLATORTYPE_LSE) == RCC_OSCILLATORTYPE_LSE)
 80034b6:	6801      	ldr	r1, [r0, #0]
 80034b8:	601c      	str	r4, [r3, #0]
 80034ba:	074f      	lsls	r7, r1, #29
 80034bc:	d541      	bpl.n	8003542 <HAL_RCC_OscConfig+0x1d6>
    __HAL_RCC_PWR_CLK_ENABLE();
 80034be:	4b42      	ldr	r3, [pc, #264]	; (80035c8 <HAL_RCC_OscConfig+0x25c>)
    PWR->CR |= PWR_CR_DBP;
 80034c0:	4c45      	ldr	r4, [pc, #276]	; (80035d8 <HAL_RCC_OscConfig+0x26c>)
    __HAL_RCC_PWR_CLK_ENABLE();
 80034c2:	2200      	movs	r2, #0
 80034c4:	9201      	str	r2, [sp, #4]
 80034c6:	6c1a      	ldr	r2, [r3, #64]	; 0x40
 80034c8:	f042 5280 	orr.w	r2, r2, #268435456	; 0x10000000
 80034cc:	641a      	str	r2, [r3, #64]	; 0x40
 80034ce:	6c1b      	ldr	r3, [r3, #64]	; 0x40
 80034d0:	f003 5380 	and.w	r3, r3, #268435456	; 0x10000000
 80034d4:	9301      	str	r3, [sp, #4]
 80034d6:	9b01      	ldr	r3, [sp, #4]
    PWR->CR |= PWR_CR_DBP;
 80034d8:	6822      	ldr	r2, [r4, #0]
	return tick++;;
 80034da:	4b3c      	ldr	r3, [pc, #240]	; (80035cc <HAL_RCC_OscConfig+0x260>)
    PWR->CR |= PWR_CR_DBP;
 80034dc:	f442 7280 	orr.w	r2, r2, #256	; 0x100
 80034e0:	6022      	str	r2, [r4, #0]
	return tick++;;
 80034e2:	6819      	ldr	r1, [r3, #0]
 80034e4:	1c4a      	adds	r2, r1, #1
 80034e6:	601a      	str	r2, [r3, #0]
    while((PWR->CR & PWR_CR_DBP) == RESET)
 80034e8:	6825      	ldr	r5, [r4, #0]
 80034ea:	05ee      	lsls	r6, r5, #23
 80034ec:	f100 80a3 	bmi.w	8003636 <HAL_RCC_OscConfig+0x2ca>
 80034f0:	6825      	ldr	r5, [r4, #0]
 80034f2:	05ed      	lsls	r5, r5, #23
	return tick++;;
 80034f4:	f101 0202 	add.w	r2, r1, #2
    while((PWR->CR & PWR_CR_DBP) == RESET)
 80034f8:	f100 809c 	bmi.w	8003634 <HAL_RCC_OscConfig+0x2c8>
 80034fc:	6824      	ldr	r4, [r4, #0]
 80034fe:	05e4      	lsls	r4, r4, #23
	return tick++;;
 8003500:	f101 0203 	add.w	r2, r1, #3
    while((PWR->CR & PWR_CR_DBP) == RESET)
 8003504:	f100 8096 	bmi.w	8003634 <HAL_RCC_OscConfig+0x2c8>
	return tick++;;
 8003508:	3104      	adds	r1, #4
 800350a:	6019      	str	r1, [r3, #0]
        return HAL_TIMEOUT;
 800350c:	2003      	movs	r0, #3
}
 800350e:	b002      	add	sp, #8
 8003510:	bcf0      	pop	{r4, r5, r6, r7}
 8003512:	4770      	bx	lr
    __HAL_RCC_LSE_CONFIG(RCC_OscInitStruct->LSEState);
 8003514:	4c2c      	ldr	r4, [pc, #176]	; (80035c8 <HAL_RCC_OscConfig+0x25c>)
 8003516:	6f21      	ldr	r1, [r4, #112]	; 0x70
 8003518:	f041 0101 	orr.w	r1, r1, #1
 800351c:	6721      	str	r1, [r4, #112]	; 0x70
	return tick++;;
 800351e:	1c51      	adds	r1, r2, #1
 8003520:	f502 529c 	add.w	r2, r2, #4992	; 0x1380
      while(__HAL_RCC_GET_FLAG(RCC_FLAG_LSERDY) == RESET)
 8003524:	4d28      	ldr	r5, [pc, #160]	; (80035c8 <HAL_RCC_OscConfig+0x25c>)
	return tick++;;
 8003526:	6019      	str	r1, [r3, #0]
      while(__HAL_RCC_GET_FLAG(RCC_FLAG_LSERDY) == RESET)
 8003528:	320a      	adds	r2, #10
 800352a:	2600      	movs	r6, #0
 800352c:	e004      	b.n	8003538 <HAL_RCC_OscConfig+0x1cc>
	return tick++;;
 800352e:	3101      	adds	r1, #1
        if((HAL_GetTick() - tickstart ) > RCC_LSE_TIMEOUT_VALUE)
 8003530:	428a      	cmp	r2, r1
 8003532:	f04f 0601 	mov.w	r6, #1
 8003536:	d0a2      	beq.n	800347e <HAL_RCC_OscConfig+0x112>
      while(__HAL_RCC_GET_FLAG(RCC_FLAG_LSERDY) == RESET)
 8003538:	6f2c      	ldr	r4, [r5, #112]	; 0x70
 800353a:	07a7      	lsls	r7, r4, #30
 800353c:	d5f7      	bpl.n	800352e <HAL_RCC_OscConfig+0x1c2>
 800353e:	b106      	cbz	r6, 8003542 <HAL_RCC_OscConfig+0x1d6>
 8003540:	6019      	str	r1, [r3, #0]
  if ((RCC_OscInitStruct->PLL.PLLState) != RCC_PLL_NONE)
 8003542:	6983      	ldr	r3, [r0, #24]
 8003544:	b1f3      	cbz	r3, 8003584 <HAL_RCC_OscConfig+0x218>
    if(__HAL_RCC_GET_SYSCLK_SOURCE() != RCC_CFGR_SWS_PLL)
 8003546:	4d20      	ldr	r5, [pc, #128]	; (80035c8 <HAL_RCC_OscConfig+0x25c>)
 8003548:	68aa      	ldr	r2, [r5, #8]
 800354a:	f002 020c 	and.w	r2, r2, #12
 800354e:	2a08      	cmp	r2, #8
 8003550:	d035      	beq.n	80035be <HAL_RCC_OscConfig+0x252>
      if((RCC_OscInitStruct->PLL.PLLState) == RCC_PLL_ON)
 8003552:	2b02      	cmp	r3, #2
        __HAL_RCC_PLL_DISABLE();
 8003554:	4a1f      	ldr	r2, [pc, #124]	; (80035d4 <HAL_RCC_OscConfig+0x268>)
	return tick++;;
 8003556:	4b1d      	ldr	r3, [pc, #116]	; (80035cc <HAL_RCC_OscConfig+0x260>)
      if((RCC_OscInitStruct->PLL.PLLState) == RCC_PLL_ON)
 8003558:	f000 80b6 	beq.w	80036c8 <HAL_RCC_OscConfig+0x35c>
        __HAL_RCC_PLL_DISABLE();
 800355c:	2400      	movs	r4, #0
 800355e:	6614      	str	r4, [r2, #96]	; 0x60
	return tick++;;
 8003560:	6818      	ldr	r0, [r3, #0]
 8003562:	1c42      	adds	r2, r0, #1
 8003564:	f500 10f4 	add.w	r0, r0, #1998848	; 0x1e8000
 8003568:	601a      	str	r2, [r3, #0]
        while(__HAL_RCC_GET_FLAG(RCC_FLAG_PLLRDY) != RESET)
 800356a:	f200 4082 	addw	r0, r0, #1154	; 0x482
 800356e:	e004      	b.n	800357a <HAL_RCC_OscConfig+0x20e>
	return tick++;;
 8003570:	3201      	adds	r2, #1
          if((HAL_GetTick() - tickstart ) > PLL_TIMEOUT_VALUE)
 8003572:	4282      	cmp	r2, r0
 8003574:	f04f 0401 	mov.w	r4, #1
 8003578:	d081      	beq.n	800347e <HAL_RCC_OscConfig+0x112>
        while(__HAL_RCC_GET_FLAG(RCC_FLAG_PLLRDY) != RESET)
 800357a:	6829      	ldr	r1, [r5, #0]
 800357c:	0189      	lsls	r1, r1, #6
 800357e:	d4f7      	bmi.n	8003570 <HAL_RCC_OscConfig+0x204>
 8003580:	b104      	cbz	r4, 8003584 <HAL_RCC_OscConfig+0x218>
 8003582:	601a      	str	r2, [r3, #0]
  return HAL_OK;
 8003584:	2000      	movs	r0, #0
}
 8003586:	b002      	add	sp, #8
 8003588:	bcf0      	pop	{r4, r5, r6, r7}
 800358a:	4770      	bx	lr
      ((__HAL_RCC_GET_SYSCLK_SOURCE() == RCC_CFGR_SWS_PLL) && ((RCC->PLLCFGR & RCC_PLLCFGR_PLLSRC) == RCC_PLLCFGR_PLLSRC_HSE)))
 800358c:	6853      	ldr	r3, [r2, #4]
 800358e:	025e      	lsls	r6, r3, #9
 8003590:	f57f aefe 	bpl.w	8003390 <HAL_RCC_OscConfig+0x24>
      if((__HAL_RCC_GET_FLAG(RCC_FLAG_HSERDY) != RESET) && (RCC_OscInitStruct->HSEState == RCC_HSE_OFF))
 8003594:	4b0c      	ldr	r3, [pc, #48]	; (80035c8 <HAL_RCC_OscConfig+0x25c>)
 8003596:	681b      	ldr	r3, [r3, #0]
 8003598:	039d      	lsls	r5, r3, #14
 800359a:	f57f af1f 	bpl.w	80033dc <HAL_RCC_OscConfig+0x70>
 800359e:	6843      	ldr	r3, [r0, #4]
 80035a0:	2b00      	cmp	r3, #0
 80035a2:	f47f af1b 	bne.w	80033dc <HAL_RCC_OscConfig+0x70>
 80035a6:	e00a      	b.n	80035be <HAL_RCC_OscConfig+0x252>
      ((__HAL_RCC_GET_SYSCLK_SOURCE() == RCC_CFGR_SWS_PLL) && ((RCC->PLLCFGR & RCC_PLLCFGR_PLLSRC) == RCC_PLLCFGR_PLLSRC_HSI)))
 80035a8:	685b      	ldr	r3, [r3, #4]
 80035aa:	025b      	lsls	r3, r3, #9
 80035ac:	f53f af24 	bmi.w	80033f8 <HAL_RCC_OscConfig+0x8c>
      if((__HAL_RCC_GET_FLAG(RCC_FLAG_HSIRDY) != RESET) && (RCC_OscInitStruct->HSIState != RCC_HSI_ON))
 80035b0:	4b05      	ldr	r3, [pc, #20]	; (80035c8 <HAL_RCC_OscConfig+0x25c>)
 80035b2:	681b      	ldr	r3, [r3, #0]
 80035b4:	079f      	lsls	r7, r3, #30
 80035b6:	d511      	bpl.n	80035dc <HAL_RCC_OscConfig+0x270>
 80035b8:	68c3      	ldr	r3, [r0, #12]
 80035ba:	2b01      	cmp	r3, #1
 80035bc:	d00e      	beq.n	80035dc <HAL_RCC_OscConfig+0x270>
        return HAL_ERROR;
 80035be:	2001      	movs	r0, #1
}
 80035c0:	b002      	add	sp, #8
 80035c2:	bcf0      	pop	{r4, r5, r6, r7}
 80035c4:	4770      	bx	lr
 80035c6:	bf00      	nop
 80035c8:	40023800 	.word	0x40023800
 80035cc:	200009bc 	.word	0x200009bc
 80035d0:	05f5e102 	.word	0x05f5e102
 80035d4:	42470000 	.word	0x42470000
 80035d8:	40007000 	.word	0x40007000
        __HAL_RCC_HSI_CALIBRATIONVALUE_ADJUST(RCC_OscInitStruct->HSICalibrationValue);
 80035dc:	4d6b      	ldr	r5, [pc, #428]	; (800378c <HAL_RCC_OscConfig+0x420>)
 80035de:	23f8      	movs	r3, #248	; 0xf8
 80035e0:	682c      	ldr	r4, [r5, #0]
 80035e2:	fa93 f3a3 	rbit	r3, r3
 80035e6:	fab3 f283 	clz	r2, r3
 80035ea:	6903      	ldr	r3, [r0, #16]
 80035ec:	f024 04f8 	bic.w	r4, r4, #248	; 0xf8
 80035f0:	4093      	lsls	r3, r2
 80035f2:	4323      	orrs	r3, r4
  if(((RCC_OscInitStruct->OscillatorType) & RCC_OSCILLATORTYPE_LSI) == RCC_OSCILLATORTYPE_LSI)
 80035f4:	070f      	lsls	r7, r1, #28
        __HAL_RCC_HSI_CALIBRATIONVALUE_ADJUST(RCC_OscInitStruct->HSICalibrationValue);
 80035f6:	602b      	str	r3, [r5, #0]
  if(((RCC_OscInitStruct->OscillatorType) & RCC_OSCILLATORTYPE_LSI) == RCC_OSCILLATORTYPE_LSI)
 80035f8:	f57f af5f 	bpl.w	80034ba <HAL_RCC_OscConfig+0x14e>
 80035fc:	e726      	b.n	800344c <HAL_RCC_OscConfig+0xe0>
      __HAL_RCC_HSE_CONFIG(RCC_OscInitStruct->HSEState);
 80035fe:	4a63      	ldr	r2, [pc, #396]	; (800378c <HAL_RCC_OscConfig+0x420>)
 8003600:	6813      	ldr	r3, [r2, #0]
 8003602:	f443 3380 	orr.w	r3, r3, #65536	; 0x10000
 8003606:	6013      	str	r3, [r2, #0]
	return tick++;;
 8003608:	4b61      	ldr	r3, [pc, #388]	; (8003790 <HAL_RCC_OscConfig+0x424>)
 800360a:	4d62      	ldr	r5, [pc, #392]	; (8003794 <HAL_RCC_OscConfig+0x428>)
 800360c:	681c      	ldr	r4, [r3, #0]
        while(__HAL_RCC_GET_FLAG(RCC_FLAG_HSERDY) == RESET)
 800360e:	4f5f      	ldr	r7, [pc, #380]	; (800378c <HAL_RCC_OscConfig+0x420>)
	return tick++;;
 8003610:	1c62      	adds	r2, r4, #1
 8003612:	601a      	str	r2, [r3, #0]
        while(__HAL_RCC_GET_FLAG(RCC_FLAG_HSERDY) == RESET)
 8003614:	4425      	add	r5, r4
 8003616:	2600      	movs	r6, #0
 8003618:	e005      	b.n	8003626 <HAL_RCC_OscConfig+0x2ba>
	return tick++;;
 800361a:	3201      	adds	r2, #1
          if((HAL_GetTick() - tickstart ) > HSE_TIMEOUT_VALUE)
 800361c:	42aa      	cmp	r2, r5
 800361e:	f04f 0601 	mov.w	r6, #1
 8003622:	f43f af2c 	beq.w	800347e <HAL_RCC_OscConfig+0x112>
        while(__HAL_RCC_GET_FLAG(RCC_FLAG_HSERDY) == RESET)
 8003626:	683c      	ldr	r4, [r7, #0]
 8003628:	03a4      	lsls	r4, r4, #14
 800362a:	d5f6      	bpl.n	800361a <HAL_RCC_OscConfig+0x2ae>
 800362c:	2e00      	cmp	r6, #0
 800362e:	f47f aed4 	bne.w	80033da <HAL_RCC_OscConfig+0x6e>
 8003632:	e6d3      	b.n	80033dc <HAL_RCC_OscConfig+0x70>
 8003634:	601a      	str	r2, [r3, #0]
    __HAL_RCC_LSE_CONFIG(RCC_OscInitStruct->LSEState);
 8003636:	6885      	ldr	r5, [r0, #8]
 8003638:	2d01      	cmp	r5, #1
 800363a:	f43f af6b 	beq.w	8003514 <HAL_RCC_OscConfig+0x1a8>
 800363e:	2d05      	cmp	r5, #5
 8003640:	f000 8097 	beq.w	8003772 <HAL_RCC_OscConfig+0x406>
 8003644:	4e51      	ldr	r6, [pc, #324]	; (800378c <HAL_RCC_OscConfig+0x420>)
 8003646:	6f31      	ldr	r1, [r6, #112]	; 0x70
 8003648:	f021 0101 	bic.w	r1, r1, #1
 800364c:	6731      	str	r1, [r6, #112]	; 0x70
 800364e:	6f31      	ldr	r1, [r6, #112]	; 0x70
 8003650:	f021 0104 	bic.w	r1, r1, #4
 8003654:	6731      	str	r1, [r6, #112]	; 0x70
    if((RCC_OscInitStruct->LSEState) != RCC_LSE_OFF)
 8003656:	2d00      	cmp	r5, #0
 8003658:	f47f af61 	bne.w	800351e <HAL_RCC_OscConfig+0x1b2>
	return tick++;;
 800365c:	1c51      	adds	r1, r2, #1
 800365e:	f502 529c 	add.w	r2, r2, #4992	; 0x1380
 8003662:	6019      	str	r1, [r3, #0]
      while(__HAL_RCC_GET_FLAG(RCC_FLAG_LSERDY) != RESET)
 8003664:	320a      	adds	r2, #10
 8003666:	e004      	b.n	8003672 <HAL_RCC_OscConfig+0x306>
	return tick++;;
 8003668:	3101      	adds	r1, #1
        if((HAL_GetTick() - tickstart ) > RCC_LSE_TIMEOUT_VALUE)
 800366a:	4291      	cmp	r1, r2
 800366c:	f04f 0501 	mov.w	r5, #1
 8003670:	d07c      	beq.n	800376c <HAL_RCC_OscConfig+0x400>
      while(__HAL_RCC_GET_FLAG(RCC_FLAG_LSERDY) != RESET)
 8003672:	6f34      	ldr	r4, [r6, #112]	; 0x70
 8003674:	07a4      	lsls	r4, r4, #30
 8003676:	d4f7      	bmi.n	8003668 <HAL_RCC_OscConfig+0x2fc>
 8003678:	2d00      	cmp	r5, #0
 800367a:	f47f af61 	bne.w	8003540 <HAL_RCC_OscConfig+0x1d4>
 800367e:	e760      	b.n	8003542 <HAL_RCC_OscConfig+0x1d6>
        __HAL_RCC_HSI_DISABLE();
 8003680:	4945      	ldr	r1, [pc, #276]	; (8003798 <HAL_RCC_OscConfig+0x42c>)
	return tick++;;
 8003682:	4b43      	ldr	r3, [pc, #268]	; (8003790 <HAL_RCC_OscConfig+0x424>)
        __HAL_RCC_HSI_DISABLE();
 8003684:	600a      	str	r2, [r1, #0]
	return tick++;;
 8003686:	681a      	ldr	r2, [r3, #0]
        while(__HAL_RCC_GET_FLAG(RCC_FLAG_HSIRDY) != RESET)
 8003688:	4940      	ldr	r1, [pc, #256]	; (800378c <HAL_RCC_OscConfig+0x420>)
	return tick++;;
 800368a:	1c54      	adds	r4, r2, #1
 800368c:	601c      	str	r4, [r3, #0]
        while(__HAL_RCC_GET_FLAG(RCC_FLAG_HSIRDY) != RESET)
 800368e:	680c      	ldr	r4, [r1, #0]
 8003690:	07a6      	lsls	r6, r4, #30
 8003692:	d578      	bpl.n	8003786 <HAL_RCC_OscConfig+0x41a>
 8003694:	680d      	ldr	r5, [r1, #0]
 8003696:	07ad      	lsls	r5, r5, #30
	return tick++;;
 8003698:	f102 0402 	add.w	r4, r2, #2
        while(__HAL_RCC_GET_FLAG(RCC_FLAG_HSIRDY) != RESET)
 800369c:	d505      	bpl.n	80036aa <HAL_RCC_OscConfig+0x33e>
 800369e:	6809      	ldr	r1, [r1, #0]
 80036a0:	0789      	lsls	r1, r1, #30
	return tick++;;
 80036a2:	f102 0403 	add.w	r4, r2, #3
        while(__HAL_RCC_GET_FLAG(RCC_FLAG_HSIRDY) != RESET)
 80036a6:	f53f aee9 	bmi.w	800347c <HAL_RCC_OscConfig+0x110>
  if(((RCC_OscInitStruct->OscillatorType) & RCC_OSCILLATORTYPE_LSI) == RCC_OSCILLATORTYPE_LSI)
 80036aa:	6801      	ldr	r1, [r0, #0]
 80036ac:	601c      	str	r4, [r3, #0]
 80036ae:	e6cb      	b.n	8003448 <HAL_RCC_OscConfig+0xdc>
      __HAL_RCC_HSE_CONFIG(RCC_OscInitStruct->HSEState);
 80036b0:	4b36      	ldr	r3, [pc, #216]	; (800378c <HAL_RCC_OscConfig+0x420>)
 80036b2:	681a      	ldr	r2, [r3, #0]
 80036b4:	f442 2280 	orr.w	r2, r2, #262144	; 0x40000
 80036b8:	601a      	str	r2, [r3, #0]
 80036ba:	681a      	ldr	r2, [r3, #0]
 80036bc:	f442 3280 	orr.w	r2, r2, #65536	; 0x10000
 80036c0:	601a      	str	r2, [r3, #0]
      if((RCC_OscInitStruct->HSEState) != RCC_HSE_OFF)
 80036c2:	e7a1      	b.n	8003608 <HAL_RCC_OscConfig+0x29c>
  if(((RCC_OscInitStruct->OscillatorType) & RCC_OSCILLATORTYPE_LSE) == RCC_OSCILLATORTYPE_LSE)
 80036c4:	6801      	ldr	r1, [r0, #0]
 80036c6:	e6f8      	b.n	80034ba <HAL_RCC_OscConfig+0x14e>
        __HAL_RCC_PLL_DISABLE();
 80036c8:	2600      	movs	r6, #0
 80036ca:	6616      	str	r6, [r2, #96]	; 0x60
	return tick++;;
 80036cc:	681c      	ldr	r4, [r3, #0]
 80036ce:	1c62      	adds	r2, r4, #1
 80036d0:	f504 14f4 	add.w	r4, r4, #1998848	; 0x1e8000
 80036d4:	601a      	str	r2, [r3, #0]
        while(__HAL_RCC_GET_FLAG(RCC_FLAG_PLLRDY) != RESET)
 80036d6:	f204 4482 	addw	r4, r4, #1154	; 0x482
 80036da:	e005      	b.n	80036e8 <HAL_RCC_OscConfig+0x37c>
	return tick++;;
 80036dc:	3201      	adds	r2, #1
          if((HAL_GetTick() - tickstart ) > PLL_TIMEOUT_VALUE)
 80036de:	42a2      	cmp	r2, r4
 80036e0:	f04f 0601 	mov.w	r6, #1
 80036e4:	f43f aecb 	beq.w	800347e <HAL_RCC_OscConfig+0x112>
        while(__HAL_RCC_GET_FLAG(RCC_FLAG_PLLRDY) != RESET)
 80036e8:	6829      	ldr	r1, [r5, #0]
 80036ea:	018f      	lsls	r7, r1, #6
 80036ec:	d4f6      	bmi.n	80036dc <HAL_RCC_OscConfig+0x370>
 80036ee:	b106      	cbz	r6, 80036f2 <HAL_RCC_OscConfig+0x386>
 80036f0:	601a      	str	r2, [r3, #0]
 80036f2:	f647 75c0 	movw	r5, #32704	; 0x7fc0
 80036f6:	fa95 f5a5 	rbit	r5, r5
 80036fa:	f44f 3140 	mov.w	r1, #196608	; 0x30000
        WRITE_REG(RCC->PLLCFGR, (RCC_OscInitStruct->PLL.PLLSource                                            | \
 80036fe:	fab5 f585 	clz	r5, r5
 8003702:	fa91 f1a1 	rbit	r1, r1
 8003706:	f04f 6470 	mov.w	r4, #251658240	; 0xf000000
 800370a:	fab1 f181 	clz	r1, r1
 800370e:	fa94 f4a4 	rbit	r4, r4
 8003712:	6a82      	ldr	r2, [r0, #40]	; 0x28
 8003714:	0852      	lsrs	r2, r2, #1
 8003716:	3a01      	subs	r2, #1
 8003718:	fa02 f101 	lsl.w	r1, r2, r1
 800371c:	e9d0 2607 	ldrd	r2, r6, [r0, #28]
 8003720:	4332      	orrs	r2, r6
 8003722:	6a46      	ldr	r6, [r0, #36]	; 0x24
 8003724:	6ac0      	ldr	r0, [r0, #44]	; 0x2c
 8003726:	fa06 f505 	lsl.w	r5, r6, r5
 800372a:	fab4 f484 	clz	r4, r4
 800372e:	432a      	orrs	r2, r5
 8003730:	40a0      	lsls	r0, r4
 8003732:	430a      	orrs	r2, r1
 8003734:	4c15      	ldr	r4, [pc, #84]	; (800378c <HAL_RCC_OscConfig+0x420>)
        __HAL_RCC_PLL_ENABLE();
 8003736:	4918      	ldr	r1, [pc, #96]	; (8003798 <HAL_RCC_OscConfig+0x42c>)
        WRITE_REG(RCC->PLLCFGR, (RCC_OscInitStruct->PLL.PLLSource                                            | \
 8003738:	4302      	orrs	r2, r0
        __HAL_RCC_PLL_ENABLE();
 800373a:	2001      	movs	r0, #1
        WRITE_REG(RCC->PLLCFGR, (RCC_OscInitStruct->PLL.PLLSource                                            | \
 800373c:	6062      	str	r2, [r4, #4]
        __HAL_RCC_PLL_ENABLE();
 800373e:	6608      	str	r0, [r1, #96]	; 0x60
	return tick++;;
 8003740:	6818      	ldr	r0, [r3, #0]
 8003742:	1c42      	adds	r2, r0, #1
 8003744:	f500 10f4 	add.w	r0, r0, #1998848	; 0x1e8000
 8003748:	601a      	str	r2, [r3, #0]
        while(__HAL_RCC_GET_FLAG(RCC_FLAG_PLLRDY) == RESET)
 800374a:	f200 4082 	addw	r0, r0, #1154	; 0x482
 800374e:	2500      	movs	r5, #0
 8003750:	e005      	b.n	800375e <HAL_RCC_OscConfig+0x3f2>
	return tick++;;
 8003752:	3201      	adds	r2, #1
          if((HAL_GetTick() - tickstart ) > PLL_TIMEOUT_VALUE)
 8003754:	4282      	cmp	r2, r0
 8003756:	f04f 0501 	mov.w	r5, #1
 800375a:	f43f ae90 	beq.w	800347e <HAL_RCC_OscConfig+0x112>
        while(__HAL_RCC_GET_FLAG(RCC_FLAG_PLLRDY) == RESET)
 800375e:	6821      	ldr	r1, [r4, #0]
 8003760:	018e      	lsls	r6, r1, #6
 8003762:	d5f6      	bpl.n	8003752 <HAL_RCC_OscConfig+0x3e6>
 8003764:	2d00      	cmp	r5, #0
 8003766:	f47f af0c 	bne.w	8003582 <HAL_RCC_OscConfig+0x216>
 800376a:	e70b      	b.n	8003584 <HAL_RCC_OscConfig+0x218>
 800376c:	6019      	str	r1, [r3, #0]
          return HAL_TIMEOUT;
 800376e:	2003      	movs	r0, #3
 8003770:	e6cd      	b.n	800350e <HAL_RCC_OscConfig+0x1a2>
    __HAL_RCC_LSE_CONFIG(RCC_OscInitStruct->LSEState);
 8003772:	4906      	ldr	r1, [pc, #24]	; (800378c <HAL_RCC_OscConfig+0x420>)
 8003774:	6f0c      	ldr	r4, [r1, #112]	; 0x70
 8003776:	f044 0404 	orr.w	r4, r4, #4
 800377a:	670c      	str	r4, [r1, #112]	; 0x70
 800377c:	6f0c      	ldr	r4, [r1, #112]	; 0x70
 800377e:	f044 0401 	orr.w	r4, r4, #1
 8003782:	670c      	str	r4, [r1, #112]	; 0x70
    if((RCC_OscInitStruct->LSEState) != RCC_LSE_OFF)
 8003784:	e6cb      	b.n	800351e <HAL_RCC_OscConfig+0x1b2>
  if(((RCC_OscInitStruct->OscillatorType) & RCC_OSCILLATORTYPE_LSI) == RCC_OSCILLATORTYPE_LSI)
 8003786:	6801      	ldr	r1, [r0, #0]
 8003788:	e65e      	b.n	8003448 <HAL_RCC_OscConfig+0xdc>
 800378a:	bf00      	nop
 800378c:	40023800 	.word	0x40023800
 8003790:	200009bc 	.word	0x200009bc
 8003794:	05f5e102 	.word	0x05f5e102
 8003798:	42470000 	.word	0x42470000

0800379c <HAL_RCC_ClockConfig>:
  /* To correctly read data from FLASH memory, the number of wait states (LATENCY)
    must be correctly programmed according to the frequency of the CPU clock
    (HCLK) and the supply voltage of the device. */

  /* Increasing the number of wait states because of higher CPU frequency */
  if(FLatency > (FLASH->ACR & FLASH_ACR_LATENCY))
 800379c:	4a63      	ldr	r2, [pc, #396]	; (800392c <HAL_RCC_ClockConfig+0x190>)
 800379e:	6813      	ldr	r3, [r2, #0]
 80037a0:	f003 030f 	and.w	r3, r3, #15
 80037a4:	428b      	cmp	r3, r1
 80037a6:	d208      	bcs.n	80037ba <HAL_RCC_ClockConfig+0x1e>
  {
    /* Program the new number of wait states to the LATENCY bits in the FLASH_ACR register */
    __HAL_FLASH_SET_LATENCY(FLatency);
 80037a8:	b2cb      	uxtb	r3, r1
 80037aa:	7013      	strb	r3, [r2, #0]

    /* Check that the new number of wait states is taken into account to access the Flash
    memory by reading the FLASH_ACR register */
    if((FLASH->ACR & FLASH_ACR_LATENCY) != FLatency)
 80037ac:	6813      	ldr	r3, [r2, #0]
 80037ae:	f003 030f 	and.w	r3, r3, #15
 80037b2:	428b      	cmp	r3, r1
 80037b4:	d001      	beq.n	80037ba <HAL_RCC_ClockConfig+0x1e>
    {
      return HAL_ERROR;
 80037b6:	2001      	movs	r0, #1

  /* Configure the source of time base considering new system clocks settings*/
  //HAL_InitTick (TICK_INT_PRIORITY);

  return HAL_OK;
}
 80037b8:	4770      	bx	lr
  if(((RCC_ClkInitStruct->ClockType) & RCC_CLOCKTYPE_HCLK) == RCC_CLOCKTYPE_HCLK)
 80037ba:	6803      	ldr	r3, [r0, #0]
{
 80037bc:	b5f0      	push	{r4, r5, r6, r7, lr}
  if(((RCC_ClkInitStruct->ClockType) & RCC_CLOCKTYPE_HCLK) == RCC_CLOCKTYPE_HCLK)
 80037be:	079e      	lsls	r6, r3, #30
 80037c0:	d506      	bpl.n	80037d0 <HAL_RCC_ClockConfig+0x34>
    MODIFY_REG(RCC->CFGR, RCC_CFGR_HPRE, RCC_ClkInitStruct->AHBCLKDivider);
 80037c2:	4c5b      	ldr	r4, [pc, #364]	; (8003930 <HAL_RCC_ClockConfig+0x194>)
 80037c4:	6885      	ldr	r5, [r0, #8]
 80037c6:	68a2      	ldr	r2, [r4, #8]
 80037c8:	f022 02f0 	bic.w	r2, r2, #240	; 0xf0
 80037cc:	432a      	orrs	r2, r5
 80037ce:	60a2      	str	r2, [r4, #8]
  if(((RCC_ClkInitStruct->ClockType) & RCC_CLOCKTYPE_SYSCLK) == RCC_CLOCKTYPE_SYSCLK)
 80037d0:	07dd      	lsls	r5, r3, #31
 80037d2:	d527      	bpl.n	8003824 <HAL_RCC_ClockConfig+0x88>
    if(RCC_ClkInitStruct->SYSCLKSource == RCC_SYSCLKSOURCE_HSE)
 80037d4:	6844      	ldr	r4, [r0, #4]
 80037d6:	2c01      	cmp	r4, #1
 80037d8:	d06d      	beq.n	80038b6 <HAL_RCC_ClockConfig+0x11a>
    else if((RCC_ClkInitStruct->SYSCLKSource == RCC_SYSCLKSOURCE_PLLCLK)   ||
 80037da:	1ea2      	subs	r2, r4, #2
 80037dc:	2a01      	cmp	r2, #1
 80037de:	d949      	bls.n	8003874 <HAL_RCC_ClockConfig+0xd8>
      if(__HAL_RCC_GET_FLAG(RCC_FLAG_HSIRDY) == RESET)
 80037e0:	4d53      	ldr	r5, [pc, #332]	; (8003930 <HAL_RCC_ClockConfig+0x194>)
 80037e2:	682a      	ldr	r2, [r5, #0]
 80037e4:	0796      	lsls	r6, r2, #30
 80037e6:	d52a      	bpl.n	800383e <HAL_RCC_ClockConfig+0xa2>
    __HAL_RCC_SYSCLK_CONFIG(RCC_ClkInitStruct->SYSCLKSource);
 80037e8:	68aa      	ldr	r2, [r5, #8]
	return tick++;;
 80037ea:	4e52      	ldr	r6, [pc, #328]	; (8003934 <HAL_RCC_ClockConfig+0x198>)
    __HAL_RCC_SYSCLK_CONFIG(RCC_ClkInitStruct->SYSCLKSource);
 80037ec:	f022 0203 	bic.w	r2, r2, #3
 80037f0:	4314      	orrs	r4, r2
 80037f2:	60ac      	str	r4, [r5, #8]
	return tick++;;
 80037f4:	6837      	ldr	r7, [r6, #0]
 80037f6:	1c7a      	adds	r2, r7, #1
 80037f8:	f04f 0c00 	mov.w	ip, #0
        if((HAL_GetTick() - tickstart ) > CLOCKSWITCH_TIMEOUT_VALUE)
 80037fc:	f241 3e88 	movw	lr, #5000	; 0x1388
	return tick++;;
 8003800:	6032      	str	r2, [r6, #0]
        if((HAL_GetTick() - tickstart ) > CLOCKSWITCH_TIMEOUT_VALUE)
 8003802:	43ff      	mvns	r7, r7
 8003804:	e006      	b.n	8003814 <HAL_RCC_ClockConfig+0x78>
	return tick++;;
 8003806:	3201      	adds	r2, #1
        if((HAL_GetTick() - tickstart ) > CLOCKSWITCH_TIMEOUT_VALUE)
 8003808:	18bc      	adds	r4, r7, r2
 800380a:	4574      	cmp	r4, lr
 800380c:	f04f 0c01 	mov.w	ip, #1
 8003810:	f200 8088 	bhi.w	8003924 <HAL_RCC_ClockConfig+0x188>
      while(__HAL_RCC_GET_SYSCLK_SOURCE() != RCC_SYSCLKSOURCE_STATUS_HSI)
 8003814:	68ac      	ldr	r4, [r5, #8]
 8003816:	f014 0f0c 	tst.w	r4, #12
 800381a:	d1f4      	bne.n	8003806 <HAL_RCC_ClockConfig+0x6a>
 800381c:	f1bc 0f00 	cmp.w	ip, #0
 8003820:	d000      	beq.n	8003824 <HAL_RCC_ClockConfig+0x88>
 8003822:	6032      	str	r2, [r6, #0]
  if(FLatency < (FLASH->ACR & FLASH_ACR_LATENCY))
 8003824:	4c41      	ldr	r4, [pc, #260]	; (800392c <HAL_RCC_ClockConfig+0x190>)
 8003826:	6822      	ldr	r2, [r4, #0]
 8003828:	f002 020f 	and.w	r2, r2, #15
 800382c:	428a      	cmp	r2, r1
 800382e:	d909      	bls.n	8003844 <HAL_RCC_ClockConfig+0xa8>
    __HAL_FLASH_SET_LATENCY(FLatency);
 8003830:	b2cb      	uxtb	r3, r1
 8003832:	7023      	strb	r3, [r4, #0]
    if((FLASH->ACR & FLASH_ACR_LATENCY) != FLatency)
 8003834:	6823      	ldr	r3, [r4, #0]
 8003836:	f003 030f 	and.w	r3, r3, #15
 800383a:	428b      	cmp	r3, r1
 800383c:	d001      	beq.n	8003842 <HAL_RCC_ClockConfig+0xa6>
      return HAL_ERROR;
 800383e:	2001      	movs	r0, #1
}
 8003840:	bdf0      	pop	{r4, r5, r6, r7, pc}
  if(((RCC_ClkInitStruct->ClockType) & RCC_CLOCKTYPE_PCLK1) == RCC_CLOCKTYPE_PCLK1)
 8003842:	6803      	ldr	r3, [r0, #0]
 8003844:	075a      	lsls	r2, r3, #29
 8003846:	d506      	bpl.n	8003856 <HAL_RCC_ClockConfig+0xba>
    MODIFY_REG(RCC->CFGR, RCC_CFGR_PPRE1, RCC_ClkInitStruct->APB1CLKDivider);
 8003848:	4939      	ldr	r1, [pc, #228]	; (8003930 <HAL_RCC_ClockConfig+0x194>)
 800384a:	68c4      	ldr	r4, [r0, #12]
 800384c:	688a      	ldr	r2, [r1, #8]
 800384e:	f422 52e0 	bic.w	r2, r2, #7168	; 0x1c00
 8003852:	4322      	orrs	r2, r4
 8003854:	608a      	str	r2, [r1, #8]
  if(((RCC_ClkInitStruct->ClockType) & RCC_CLOCKTYPE_PCLK2) == RCC_CLOCKTYPE_PCLK2)
 8003856:	f013 0308 	ands.w	r3, r3, #8
 800385a:	d009      	beq.n	8003870 <HAL_RCC_ClockConfig+0xd4>
    MODIFY_REG(RCC->CFGR, RCC_CFGR_PPRE2, ((RCC_ClkInitStruct->APB2CLKDivider) << 3U));
 800385c:	4a34      	ldr	r2, [pc, #208]	; (8003930 <HAL_RCC_ClockConfig+0x194>)
 800385e:	6901      	ldr	r1, [r0, #16]
 8003860:	6893      	ldr	r3, [r2, #8]
 8003862:	f423 4360 	bic.w	r3, r3, #57344	; 0xe000
 8003866:	ea43 03c1 	orr.w	r3, r3, r1, lsl #3
  return HAL_OK;
 800386a:	2000      	movs	r0, #0
    MODIFY_REG(RCC->CFGR, RCC_CFGR_PPRE2, ((RCC_ClkInitStruct->APB2CLKDivider) << 3U));
 800386c:	6093      	str	r3, [r2, #8]
}
 800386e:	bdf0      	pop	{r4, r5, r6, r7, pc}
  return HAL_OK;
 8003870:	4618      	mov	r0, r3
}
 8003872:	bdf0      	pop	{r4, r5, r6, r7, pc}
      if(__HAL_RCC_GET_FLAG(RCC_FLAG_PLLRDY) == RESET)
 8003874:	4f2e      	ldr	r7, [pc, #184]	; (8003930 <HAL_RCC_ClockConfig+0x194>)
 8003876:	683a      	ldr	r2, [r7, #0]
 8003878:	0192      	lsls	r2, r2, #6
 800387a:	d5e0      	bpl.n	800383e <HAL_RCC_ClockConfig+0xa2>
    __HAL_RCC_SYSCLK_CONFIG(RCC_ClkInitStruct->SYSCLKSource);
 800387c:	68ba      	ldr	r2, [r7, #8]
	return tick++;;
 800387e:	4e2d      	ldr	r6, [pc, #180]	; (8003934 <HAL_RCC_ClockConfig+0x198>)
    __HAL_RCC_SYSCLK_CONFIG(RCC_ClkInitStruct->SYSCLKSource);
 8003880:	f022 0203 	bic.w	r2, r2, #3
 8003884:	4322      	orrs	r2, r4
 8003886:	60ba      	str	r2, [r7, #8]
	return tick++;;
 8003888:	6835      	ldr	r5, [r6, #0]
    else if(RCC_ClkInitStruct->SYSCLKSource == RCC_SYSCLKSOURCE_PLLCLK)
 800388a:	2c02      	cmp	r4, #2
	return tick++;;
 800388c:	f105 0201 	add.w	r2, r5, #1
 8003890:	6032      	str	r2, [r6, #0]
    else if(RCC_ClkInitStruct->SYSCLKSource == RCC_SYSCLKSOURCE_PLLCLK)
 8003892:	d136      	bne.n	8003902 <HAL_RCC_ClockConfig+0x166>
 8003894:	f505 559c 	add.w	r5, r5, #4992	; 0x1380
 8003898:	350a      	adds	r5, #10
 800389a:	f04f 0c00 	mov.w	ip, #0
 800389e:	e004      	b.n	80038aa <HAL_RCC_ClockConfig+0x10e>
	return tick++;;
 80038a0:	3201      	adds	r2, #1
        if((HAL_GetTick() - tickstart ) > CLOCKSWITCH_TIMEOUT_VALUE)
 80038a2:	4295      	cmp	r5, r2
 80038a4:	f04f 0c01 	mov.w	ip, #1
 80038a8:	d028      	beq.n	80038fc <HAL_RCC_ClockConfig+0x160>
      while (__HAL_RCC_GET_SYSCLK_SOURCE() != RCC_SYSCLKSOURCE_STATUS_PLLCLK)
 80038aa:	68bc      	ldr	r4, [r7, #8]
 80038ac:	f004 040c 	and.w	r4, r4, #12
 80038b0:	2c08      	cmp	r4, #8
 80038b2:	d1f5      	bne.n	80038a0 <HAL_RCC_ClockConfig+0x104>
 80038b4:	e7b2      	b.n	800381c <HAL_RCC_ClockConfig+0x80>
      if(__HAL_RCC_GET_FLAG(RCC_FLAG_HSERDY) == RESET)
 80038b6:	4f1e      	ldr	r7, [pc, #120]	; (8003930 <HAL_RCC_ClockConfig+0x194>)
 80038b8:	683a      	ldr	r2, [r7, #0]
 80038ba:	0394      	lsls	r4, r2, #14
 80038bc:	d5bf      	bpl.n	800383e <HAL_RCC_ClockConfig+0xa2>
    __HAL_RCC_SYSCLK_CONFIG(RCC_ClkInitStruct->SYSCLKSource);
 80038be:	68ba      	ldr	r2, [r7, #8]
	return tick++;;
 80038c0:	4e1c      	ldr	r6, [pc, #112]	; (8003934 <HAL_RCC_ClockConfig+0x198>)
    __HAL_RCC_SYSCLK_CONFIG(RCC_ClkInitStruct->SYSCLKSource);
 80038c2:	f022 0203 	bic.w	r2, r2, #3
 80038c6:	f042 0201 	orr.w	r2, r2, #1
 80038ca:	60ba      	str	r2, [r7, #8]
	return tick++;;
 80038cc:	6835      	ldr	r5, [r6, #0]
 80038ce:	1c6c      	adds	r4, r5, #1
 80038d0:	f505 559c 	add.w	r5, r5, #4992	; 0x1380
 80038d4:	f04f 0c00 	mov.w	ip, #0
 80038d8:	6034      	str	r4, [r6, #0]
    if(RCC_ClkInitStruct->SYSCLKSource == RCC_SYSCLKSOURCE_HSE)
 80038da:	350a      	adds	r5, #10
 80038dc:	e004      	b.n	80038e8 <HAL_RCC_ClockConfig+0x14c>
	return tick++;;
 80038de:	3401      	adds	r4, #1
        if((HAL_GetTick() - tickstart ) > CLOCKSWITCH_TIMEOUT_VALUE)
 80038e0:	42a5      	cmp	r5, r4
 80038e2:	f04f 0c01 	mov.w	ip, #1
 80038e6:	d009      	beq.n	80038fc <HAL_RCC_ClockConfig+0x160>
      while (__HAL_RCC_GET_SYSCLK_SOURCE() != RCC_SYSCLKSOURCE_STATUS_HSE)
 80038e8:	68ba      	ldr	r2, [r7, #8]
 80038ea:	f002 020c 	and.w	r2, r2, #12
 80038ee:	2a04      	cmp	r2, #4
 80038f0:	d1f5      	bne.n	80038de <HAL_RCC_ClockConfig+0x142>
 80038f2:	f1bc 0f00 	cmp.w	ip, #0
 80038f6:	d095      	beq.n	8003824 <HAL_RCC_ClockConfig+0x88>
 80038f8:	6034      	str	r4, [r6, #0]
 80038fa:	e793      	b.n	8003824 <HAL_RCC_ClockConfig+0x88>
 80038fc:	6035      	str	r5, [r6, #0]
          return HAL_TIMEOUT;
 80038fe:	2003      	movs	r0, #3
}
 8003900:	bdf0      	pop	{r4, r5, r6, r7, pc}
    else if(RCC_ClkInitStruct->SYSCLKSource == RCC_SYSCLKSOURCE_PLLRCLK)
 8003902:	f505 559c 	add.w	r5, r5, #4992	; 0x1380
 8003906:	350a      	adds	r5, #10
    else if(RCC_ClkInitStruct->SYSCLKSource == RCC_SYSCLKSOURCE_PLLCLK)
 8003908:	f04f 0c00 	mov.w	ip, #0
 800390c:	e004      	b.n	8003918 <HAL_RCC_ClockConfig+0x17c>
	return tick++;;
 800390e:	3201      	adds	r2, #1
        if((HAL_GetTick() - tickstart ) > CLOCKSWITCH_TIMEOUT_VALUE)
 8003910:	4295      	cmp	r5, r2
 8003912:	f04f 0c01 	mov.w	ip, #1
 8003916:	d0f1      	beq.n	80038fc <HAL_RCC_ClockConfig+0x160>
      while (__HAL_RCC_GET_SYSCLK_SOURCE() != RCC_SYSCLKSOURCE_STATUS_PLLRCLK)
 8003918:	68bc      	ldr	r4, [r7, #8]
 800391a:	f004 040c 	and.w	r4, r4, #12
 800391e:	2c0c      	cmp	r4, #12
 8003920:	d1f5      	bne.n	800390e <HAL_RCC_ClockConfig+0x172>
 8003922:	e77b      	b.n	800381c <HAL_RCC_ClockConfig+0x80>
 8003924:	6032      	str	r2, [r6, #0]
          return HAL_TIMEOUT;
 8003926:	2003      	movs	r0, #3
}
 8003928:	bdf0      	pop	{r4, r5, r6, r7, pc}
 800392a:	bf00      	nop
 800392c:	40023c00 	.word	0x40023c00
 8003930:	40023800 	.word	0x40023800
 8003934:	200009bc 	.word	0x200009bc

08003938 <HAL_GPIO_Init>:
  * @param  GPIO_Init: pointer to a GPIO_InitTypeDef structure that contains
  *         the configuration information for the specified GPIO peripheral.
  * @retval None
  */
void HAL_GPIO_Init(GPIO_TypeDef  *GPIOx, GPIO_InitTypeDef *GPIO_Init)
{
 8003938:	e92d 4ff0 	stmdb	sp!, {r4, r5, r6, r7, r8, r9, sl, fp, lr}
  assert_param(IS_GPIO_PIN(GPIO_Init->Pin));
  assert_param(IS_GPIO_MODE(GPIO_Init->Mode));
  assert_param(IS_GPIO_PULL(GPIO_Init->Pull));

  /* Configure the port pins */
  for(position = 0U; position < GPIO_NUMBER; position++)
 800393c:	2300      	movs	r3, #0
  {
    /* Get the IO position */
    ioposition = 0x01U << position;
    /* Get the current IO position */
    iocurrent = (uint32_t)(GPIO_Init->Pin) & ioposition;
 800393e:	680d      	ldr	r5, [r1, #0]
      /*--------------------- EXTI Mode Configuration ------------------------*/
      /* Configure the External Interrupt or event for the current IO */
      if((GPIO_Init->Mode & EXTI_MODE) == EXTI_MODE)
      {
        /* Enable SYSCFG Clock */
        __HAL_RCC_SYSCFG_CLK_ENABLE();
 8003940:	f8df 8234 	ldr.w	r8, [pc, #564]	; 8003b78 <HAL_GPIO_Init+0x240>
        temp &= ~(0x0FU << (4U * (position & 0x03U)));
        temp |= ((uint32_t)(GPIO_GET_INDEX(GPIOx)) << (4U * (position & 0x03U)));
        SYSCFG->EXTICR[position >> 2U] = temp;

        /* Clear EXTI line configuration */
        temp = EXTI->IMR;
 8003944:	4f8d      	ldr	r7, [pc, #564]	; (8003b7c <HAL_GPIO_Init+0x244>)
{
 8003946:	b083      	sub	sp, #12
 8003948:	e003      	b.n	8003952 <HAL_GPIO_Init+0x1a>
  for(position = 0U; position < GPIO_NUMBER; position++)
 800394a:	3301      	adds	r3, #1
 800394c:	2b10      	cmp	r3, #16
 800394e:	f000 80a5 	beq.w	8003a9c <HAL_GPIO_Init+0x164>
    ioposition = 0x01U << position;
 8003952:	2201      	movs	r2, #1
 8003954:	409a      	lsls	r2, r3
    if(iocurrent == ioposition)
 8003956:	ea32 0405 	bics.w	r4, r2, r5
    iocurrent = (uint32_t)(GPIO_Init->Pin) & ioposition;
 800395a:	ea02 0c05 	and.w	ip, r2, r5
    if(iocurrent == ioposition)
 800395e:	d1f4      	bne.n	800394a <HAL_GPIO_Init+0x12>
      if((GPIO_Init->Mode == GPIO_MODE_AF_PP) || (GPIO_Init->Mode == GPIO_MODE_AF_OD))
 8003960:	684e      	ldr	r6, [r1, #4]
 8003962:	f026 0910 	bic.w	r9, r6, #16
 8003966:	f1b9 0f02 	cmp.w	r9, #2
 800396a:	f000 809a 	beq.w	8003aa2 <HAL_GPIO_Init+0x16a>
      temp = GPIOx->MODER;
 800396e:	f8d0 b000 	ldr.w	fp, [r0]
      temp &= ~(GPIO_MODER_MODER0 << (position * 2U));
 8003972:	ea4f 0e43 	mov.w	lr, r3, lsl #1
 8003976:	2403      	movs	r4, #3
 8003978:	fa04 f40e 	lsl.w	r4, r4, lr
      temp |= ((GPIO_Init->Mode & GPIO_MODE) << (position * 2U));
 800397c:	f006 0a03 	and.w	sl, r6, #3
      temp &= ~(GPIO_MODER_MODER0 << (position * 2U));
 8003980:	ea2b 0b04 	bic.w	fp, fp, r4
      if((GPIO_Init->Mode == GPIO_MODE_OUTPUT_PP) || (GPIO_Init->Mode == GPIO_MODE_AF_PP) ||
 8003984:	f109 39ff 	add.w	r9, r9, #4294967295	; 0xffffffff
      temp |= ((GPIO_Init->Mode & GPIO_MODE) << (position * 2U));
 8003988:	fa0a fa0e 	lsl.w	sl, sl, lr
 800398c:	ea4a 0a0b 	orr.w	sl, sl, fp
      if((GPIO_Init->Mode == GPIO_MODE_OUTPUT_PP) || (GPIO_Init->Mode == GPIO_MODE_AF_PP) ||
 8003990:	f1b9 0f01 	cmp.w	r9, #1
      temp &= ~(GPIO_MODER_MODER0 << (position * 2U));
 8003994:	ea6f 0404 	mvn.w	r4, r4
      GPIOx->MODER = temp;
 8003998:	f8c0 a000 	str.w	sl, [r0]
      if((GPIO_Init->Mode == GPIO_MODE_OUTPUT_PP) || (GPIO_Init->Mode == GPIO_MODE_AF_PP) ||
 800399c:	f240 80aa 	bls.w	8003af4 <HAL_GPIO_Init+0x1bc>
      temp = GPIOx->PUPDR;
 80039a0:	68c2      	ldr	r2, [r0, #12]
      temp &= ~(GPIO_PUPDR_PUPDR0 << (position * 2U));
 80039a2:	4014      	ands	r4, r2
      temp |= ((GPIO_Init->Pull) << (position * 2U));
 80039a4:	688a      	ldr	r2, [r1, #8]
 80039a6:	fa02 f20e 	lsl.w	r2, r2, lr
 80039aa:	4322      	orrs	r2, r4
      GPIOx->PUPDR = temp;
 80039ac:	60c2      	str	r2, [r0, #12]
      if((GPIO_Init->Mode & EXTI_MODE) == EXTI_MODE)
 80039ae:	00f2      	lsls	r2, r6, #3
 80039b0:	d5cb      	bpl.n	800394a <HAL_GPIO_Init+0x12>
        __HAL_RCC_SYSCFG_CLK_ENABLE();
 80039b2:	2200      	movs	r2, #0
 80039b4:	9201      	str	r2, [sp, #4]
 80039b6:	f8d8 2044 	ldr.w	r2, [r8, #68]	; 0x44
 80039ba:	f442 4280 	orr.w	r2, r2, #16384	; 0x4000
 80039be:	f8c8 2044 	str.w	r2, [r8, #68]	; 0x44
 80039c2:	f8d8 2044 	ldr.w	r2, [r8, #68]	; 0x44
 80039c6:	f402 4280 	and.w	r2, r2, #16384	; 0x4000
 80039ca:	9201      	str	r2, [sp, #4]
 80039cc:	9a01      	ldr	r2, [sp, #4]
        temp = SYSCFG->EXTICR[position >> 2U];
 80039ce:	f023 0203 	bic.w	r2, r3, #3
 80039d2:	f102 4280 	add.w	r2, r2, #1073741824	; 0x40000000
 80039d6:	f502 329c 	add.w	r2, r2, #79872	; 0x13800
        temp &= ~(0x0FU << (4U * (position & 0x03U)));
 80039da:	f003 0903 	and.w	r9, r3, #3
        temp = SYSCFG->EXTICR[position >> 2U];
 80039de:	f8d2 e008 	ldr.w	lr, [r2, #8]
        temp &= ~(0x0FU << (4U * (position & 0x03U)));
 80039e2:	ea4f 0989 	mov.w	r9, r9, lsl #2
 80039e6:	240f      	movs	r4, #15
 80039e8:	fa04 f409 	lsl.w	r4, r4, r9
 80039ec:	ea2e 0404 	bic.w	r4, lr, r4
        temp |= ((uint32_t)(GPIO_GET_INDEX(GPIOx)) << (4U * (position & 0x03U)));
 80039f0:	f8df e18c 	ldr.w	lr, [pc, #396]	; 8003b80 <HAL_GPIO_Init+0x248>
 80039f4:	4570      	cmp	r0, lr
 80039f6:	d029      	beq.n	8003a4c <HAL_GPIO_Init+0x114>
 80039f8:	f50e 6e80 	add.w	lr, lr, #1024	; 0x400
 80039fc:	4570      	cmp	r0, lr
 80039fe:	f000 8090 	beq.w	8003b22 <HAL_GPIO_Init+0x1ea>
 8003a02:	f8df e180 	ldr.w	lr, [pc, #384]	; 8003b84 <HAL_GPIO_Init+0x24c>
 8003a06:	4570      	cmp	r0, lr
 8003a08:	f000 8092 	beq.w	8003b30 <HAL_GPIO_Init+0x1f8>
 8003a0c:	f8df e178 	ldr.w	lr, [pc, #376]	; 8003b88 <HAL_GPIO_Init+0x250>
 8003a10:	4570      	cmp	r0, lr
 8003a12:	f000 8094 	beq.w	8003b3e <HAL_GPIO_Init+0x206>
 8003a16:	f8df e174 	ldr.w	lr, [pc, #372]	; 8003b8c <HAL_GPIO_Init+0x254>
 8003a1a:	4570      	cmp	r0, lr
 8003a1c:	f000 8096 	beq.w	8003b4c <HAL_GPIO_Init+0x214>
 8003a20:	f8df e16c 	ldr.w	lr, [pc, #364]	; 8003b90 <HAL_GPIO_Init+0x258>
 8003a24:	4570      	cmp	r0, lr
 8003a26:	f000 8098 	beq.w	8003b5a <HAL_GPIO_Init+0x222>
 8003a2a:	f8df e168 	ldr.w	lr, [pc, #360]	; 8003b94 <HAL_GPIO_Init+0x25c>
 8003a2e:	4570      	cmp	r0, lr
 8003a30:	f000 809a 	beq.w	8003b68 <HAL_GPIO_Init+0x230>
 8003a34:	f8df e160 	ldr.w	lr, [pc, #352]	; 8003b98 <HAL_GPIO_Init+0x260>
 8003a38:	4570      	cmp	r0, lr
 8003a3a:	bf0c      	ite	eq
 8003a3c:	f04f 0e07 	moveq.w	lr, #7
 8003a40:	f04f 0e08 	movne.w	lr, #8
 8003a44:	fa0e f909 	lsl.w	r9, lr, r9
 8003a48:	ea44 0409 	orr.w	r4, r4, r9
        SYSCFG->EXTICR[position >> 2U] = temp;
 8003a4c:	6094      	str	r4, [r2, #8]
        temp = EXTI->IMR;
 8003a4e:	683a      	ldr	r2, [r7, #0]
        temp &= ~((uint32_t)iocurrent);
 8003a50:	ea6f 0e0c 	mvn.w	lr, ip
        if((GPIO_Init->Mode & GPIO_MODE_IT) == GPIO_MODE_IT)
 8003a54:	03f4      	lsls	r4, r6, #15
        temp &= ~((uint32_t)iocurrent);
 8003a56:	bf54      	ite	pl
 8003a58:	ea0e 0202 	andpl.w	r2, lr, r2
        {
          temp |= iocurrent;
 8003a5c:	ea4c 0202 	orrmi.w	r2, ip, r2
        }
        EXTI->IMR = temp;
 8003a60:	603a      	str	r2, [r7, #0]

        temp = EXTI->EMR;
 8003a62:	687c      	ldr	r4, [r7, #4]
        temp &= ~((uint32_t)iocurrent);
        if((GPIO_Init->Mode & GPIO_MODE_EVT) == GPIO_MODE_EVT)
 8003a64:	03b2      	lsls	r2, r6, #14
        temp &= ~((uint32_t)iocurrent);
 8003a66:	bf54      	ite	pl
 8003a68:	ea0e 0404 	andpl.w	r4, lr, r4
        {
          temp |= iocurrent;
 8003a6c:	ea4c 0404 	orrmi.w	r4, ip, r4
        }
        EXTI->EMR = temp;
 8003a70:	607c      	str	r4, [r7, #4]

        /* Clear Rising Falling edge configuration */
        temp = EXTI->RTSR;
 8003a72:	68bc      	ldr	r4, [r7, #8]
        temp &= ~((uint32_t)iocurrent);
        if((GPIO_Init->Mode & RISING_EDGE) == RISING_EDGE)
 8003a74:	02f2      	lsls	r2, r6, #11
        temp &= ~((uint32_t)iocurrent);
 8003a76:	bf54      	ite	pl
 8003a78:	ea0e 0404 	andpl.w	r4, lr, r4
        {
          temp |= iocurrent;
 8003a7c:	ea4c 0404 	orrmi.w	r4, ip, r4
        }
        EXTI->RTSR = temp;
 8003a80:	60bc      	str	r4, [r7, #8]

        temp = EXTI->FTSR;
 8003a82:	68fa      	ldr	r2, [r7, #12]
        temp &= ~((uint32_t)iocurrent);
        if((GPIO_Init->Mode & FALLING_EDGE) == FALLING_EDGE)
 8003a84:	02b4      	lsls	r4, r6, #10
  for(position = 0U; position < GPIO_NUMBER; position++)
 8003a86:	f103 0301 	add.w	r3, r3, #1
        temp &= ~((uint32_t)iocurrent);
 8003a8a:	bf54      	ite	pl
 8003a8c:	ea0e 0202 	andpl.w	r2, lr, r2
        {
          temp |= iocurrent;
 8003a90:	ea4c 0202 	orrmi.w	r2, ip, r2
  for(position = 0U; position < GPIO_NUMBER; position++)
 8003a94:	2b10      	cmp	r3, #16
        }
        EXTI->FTSR = temp;
 8003a96:	60fa      	str	r2, [r7, #12]
  for(position = 0U; position < GPIO_NUMBER; position++)
 8003a98:	f47f af5b 	bne.w	8003952 <HAL_GPIO_Init+0x1a>
      }
    }
  }
}
 8003a9c:	b003      	add	sp, #12
 8003a9e:	e8bd 8ff0 	ldmia.w	sp!, {r4, r5, r6, r7, r8, r9, sl, fp, pc}
        temp = GPIOx->AFR[position >> 3U];
 8003aa2:	ea4f 0ed3 	mov.w	lr, r3, lsr #3
 8003aa6:	eb00 0e8e 	add.w	lr, r0, lr, lsl #2
        temp |= ((uint32_t)(GPIO_Init->Alternate) << (((uint32_t)position & 0x07U) * 4U));
 8003aaa:	690c      	ldr	r4, [r1, #16]
        temp = GPIOx->AFR[position >> 3U];
 8003aac:	f8de a020 	ldr.w	sl, [lr, #32]
        temp &= ~(0xFU << ((uint32_t)(position & 0x07U) * 4U)) ;
 8003ab0:	f003 0907 	and.w	r9, r3, #7
 8003ab4:	ea4f 0989 	mov.w	r9, r9, lsl #2
 8003ab8:	f04f 0b0f 	mov.w	fp, #15
        temp |= ((uint32_t)(GPIO_Init->Alternate) << (((uint32_t)position & 0x07U) * 4U));
 8003abc:	fa04 f409 	lsl.w	r4, r4, r9
        temp &= ~(0xFU << ((uint32_t)(position & 0x07U) * 4U)) ;
 8003ac0:	fa0b f909 	lsl.w	r9, fp, r9
 8003ac4:	ea2a 0909 	bic.w	r9, sl, r9
        temp |= ((uint32_t)(GPIO_Init->Alternate) << (((uint32_t)position & 0x07U) * 4U));
 8003ac8:	ea44 0409 	orr.w	r4, r4, r9
        GPIOx->AFR[position >> 3U] = temp;
 8003acc:	f8ce 4020 	str.w	r4, [lr, #32]
      temp = GPIOx->MODER;
 8003ad0:	f8d0 a000 	ldr.w	sl, [r0]
      temp &= ~(GPIO_MODER_MODER0 << (position * 2U));
 8003ad4:	ea4f 0e43 	mov.w	lr, r3, lsl #1
 8003ad8:	2403      	movs	r4, #3
 8003ada:	fa04 f40e 	lsl.w	r4, r4, lr
      temp |= ((GPIO_Init->Mode & GPIO_MODE) << (position * 2U));
 8003ade:	f006 0903 	and.w	r9, r6, #3
      temp &= ~(GPIO_MODER_MODER0 << (position * 2U));
 8003ae2:	ea2a 0a04 	bic.w	sl, sl, r4
      temp |= ((GPIO_Init->Mode & GPIO_MODE) << (position * 2U));
 8003ae6:	fa09 f90e 	lsl.w	r9, r9, lr
 8003aea:	ea49 090a 	orr.w	r9, r9, sl
      temp &= ~(GPIO_MODER_MODER0 << (position * 2U));
 8003aee:	43e4      	mvns	r4, r4
      GPIOx->MODER = temp;
 8003af0:	f8c0 9000 	str.w	r9, [r0]
        temp = GPIOx->OSPEEDR;
 8003af4:	f8d0 a008 	ldr.w	sl, [r0, #8]
        temp |= (GPIO_Init->Speed << (position * 2U));
 8003af8:	f8d1 900c 	ldr.w	r9, [r1, #12]
        temp &= ~(GPIO_OSPEEDER_OSPEEDR0 << (position * 2U));
 8003afc:	ea04 0a0a 	and.w	sl, r4, sl
        temp |= (GPIO_Init->Speed << (position * 2U));
 8003b00:	fa09 f90e 	lsl.w	r9, r9, lr
 8003b04:	ea49 090a 	orr.w	r9, r9, sl
        GPIOx->OSPEEDR = temp;
 8003b08:	f8c0 9008 	str.w	r9, [r0, #8]
        temp = GPIOx->OTYPER;
 8003b0c:	f8d0 9004 	ldr.w	r9, [r0, #4]
        temp &= ~(GPIO_OTYPER_OT_0 << position) ;
 8003b10:	ea29 0902 	bic.w	r9, r9, r2
        temp |= (((GPIO_Init->Mode & GPIO_OUTPUT_TYPE) >> 4U) << position);
 8003b14:	f3c6 1200 	ubfx	r2, r6, #4, #1
 8003b18:	409a      	lsls	r2, r3
 8003b1a:	ea42 0209 	orr.w	r2, r2, r9
        GPIOx->OTYPER = temp;
 8003b1e:	6042      	str	r2, [r0, #4]
 8003b20:	e73e      	b.n	80039a0 <HAL_GPIO_Init+0x68>
        temp |= ((uint32_t)(GPIO_GET_INDEX(GPIOx)) << (4U * (position & 0x03U)));
 8003b22:	f04f 0e01 	mov.w	lr, #1
 8003b26:	fa0e f909 	lsl.w	r9, lr, r9
 8003b2a:	ea44 0409 	orr.w	r4, r4, r9
 8003b2e:	e78d      	b.n	8003a4c <HAL_GPIO_Init+0x114>
 8003b30:	f04f 0e02 	mov.w	lr, #2
 8003b34:	fa0e f909 	lsl.w	r9, lr, r9
 8003b38:	ea44 0409 	orr.w	r4, r4, r9
 8003b3c:	e786      	b.n	8003a4c <HAL_GPIO_Init+0x114>
 8003b3e:	f04f 0e03 	mov.w	lr, #3
 8003b42:	fa0e f909 	lsl.w	r9, lr, r9
 8003b46:	ea44 0409 	orr.w	r4, r4, r9
 8003b4a:	e77f      	b.n	8003a4c <HAL_GPIO_Init+0x114>
 8003b4c:	f04f 0e04 	mov.w	lr, #4
 8003b50:	fa0e f909 	lsl.w	r9, lr, r9
 8003b54:	ea44 0409 	orr.w	r4, r4, r9
 8003b58:	e778      	b.n	8003a4c <HAL_GPIO_Init+0x114>
 8003b5a:	f04f 0e05 	mov.w	lr, #5
 8003b5e:	fa0e f909 	lsl.w	r9, lr, r9
 8003b62:	ea44 0409 	orr.w	r4, r4, r9
 8003b66:	e771      	b.n	8003a4c <HAL_GPIO_Init+0x114>
 8003b68:	f04f 0e06 	mov.w	lr, #6
 8003b6c:	fa0e f909 	lsl.w	r9, lr, r9
 8003b70:	ea44 0409 	orr.w	r4, r4, r9
 8003b74:	e76a      	b.n	8003a4c <HAL_GPIO_Init+0x114>
 8003b76:	bf00      	nop
 8003b78:	40023800 	.word	0x40023800
 8003b7c:	40013c00 	.word	0x40013c00
 8003b80:	40020000 	.word	0x40020000
 8003b84:	40020800 	.word	0x40020800
 8003b88:	40020c00 	.word	0x40020c00
 8003b8c:	40021000 	.word	0x40021000
 8003b90:	40021400 	.word	0x40021400
 8003b94:	40021800 	.word	0x40021800
 8003b98:	40021c00 	.word	0x40021c00

08003b9c <HAL_GPIO_WritePin>:
{
  /* Check the parameters */
  assert_param(IS_GPIO_PIN(GPIO_Pin));
  assert_param(IS_GPIO_PIN_ACTION(PinState));

  if(PinState != GPIO_PIN_RESET)
 8003b9c:	b902      	cbnz	r2, 8003ba0 <HAL_GPIO_WritePin+0x4>
  {
    GPIOx->BSRR = GPIO_Pin;
  }
  else
  {
    GPIOx->BSRR = (uint32_t)GPIO_Pin << 16U;
 8003b9e:	0409      	lsls	r1, r1, #16
 8003ba0:	6181      	str	r1, [r0, #24]
  }
}
 8003ba2:	4770      	bx	lr

08003ba4 <HAL_UART_Init>:
  * @retval HAL status
  */
HAL_StatusTypeDef HAL_UART_Init(UART_HandleTypeDef *huart)
{
  /* Check the UART handle allocation */
  if(huart == NULL)
 8003ba4:	2800      	cmp	r0, #0
 8003ba6:	d075      	beq.n	8003c94 <HAL_UART_Init+0xf0>
{
 8003ba8:	b430      	push	{r4, r5}
    assert_param(IS_UART_INSTANCE(huart->Instance));
  }
  assert_param(IS_UART_WORD_LENGTH(huart->Init.WordLength));
  assert_param(IS_UART_OVERSAMPLING(huart->Init.OverSampling));

  if(huart->gState == HAL_UART_STATE_RESET)
 8003baa:	f890 2039 	ldrb.w	r2, [r0, #57]	; 0x39
 8003bae:	4603      	mov	r3, r0
 8003bb0:	f002 01ff 	and.w	r1, r2, #255	; 0xff
 8003bb4:	2a00      	cmp	r2, #0
 8003bb6:	d050      	beq.n	8003c5a <HAL_UART_Init+0xb6>
  }

  huart->gState = HAL_UART_STATE_BUSY;

  /* Disable the peripheral */
  __HAL_UART_DISABLE(huart);
 8003bb8:	681a      	ldr	r2, [r3, #0]
  tmpreg |= (uint32_t)huart->Init.StopBits;
 8003bba:	68dc      	ldr	r4, [r3, #12]
  tmpreg |= (uint32_t)huart->Init.WordLength | huart->Init.Parity | huart->Init.Mode | huart->Init.OverSampling;
 8003bbc:	691d      	ldr	r5, [r3, #16]
  huart->gState = HAL_UART_STATE_BUSY;
 8003bbe:	2124      	movs	r1, #36	; 0x24
 8003bc0:	f883 1039 	strb.w	r1, [r3, #57]	; 0x39
  __HAL_UART_DISABLE(huart);
 8003bc4:	68d1      	ldr	r1, [r2, #12]
 8003bc6:	f421 5100 	bic.w	r1, r1, #8192	; 0x2000
 8003bca:	60d1      	str	r1, [r2, #12]
  tmpreg = huart->Instance->CR2;
 8003bcc:	6910      	ldr	r0, [r2, #16]
  tmpreg |= (uint32_t)huart->Init.WordLength | huart->Init.Parity | huart->Init.Mode | huart->Init.OverSampling;
 8003bce:	6899      	ldr	r1, [r3, #8]
  tmpreg &= (uint32_t)~((uint32_t)USART_CR2_STOP);
 8003bd0:	f420 5040 	bic.w	r0, r0, #12288	; 0x3000
  tmpreg |= (uint32_t)huart->Init.StopBits;
 8003bd4:	4320      	orrs	r0, r4
  WRITE_REG(huart->Instance->CR2, (uint32_t)tmpreg);
 8003bd6:	6110      	str	r0, [r2, #16]
  tmpreg = huart->Instance->CR1;
 8003bd8:	68d0      	ldr	r0, [r2, #12]
  tmpreg |= (uint32_t)huart->Init.WordLength | huart->Init.Parity | huart->Init.Mode | huart->Init.OverSampling;
 8003bda:	69dc      	ldr	r4, [r3, #28]
 8003bdc:	4329      	orrs	r1, r5
 8003bde:	695d      	ldr	r5, [r3, #20]
  tmpreg &= (uint32_t)~((uint32_t)(USART_CR1_M | USART_CR1_PCE | USART_CR1_PS | USART_CR1_TE | \
 8003be0:	f420 4016 	bic.w	r0, r0, #38400	; 0x9600
  tmpreg |= (uint32_t)huart->Init.WordLength | huart->Init.Parity | huart->Init.Mode | huart->Init.OverSampling;
 8003be4:	4329      	orrs	r1, r5
  tmpreg &= (uint32_t)~((uint32_t)(USART_CR1_M | USART_CR1_PCE | USART_CR1_PS | USART_CR1_TE | \
 8003be6:	f020 000c 	bic.w	r0, r0, #12
  tmpreg |= (uint32_t)huart->Init.WordLength | huart->Init.Parity | huart->Init.Mode | huart->Init.OverSampling;
 8003bea:	4321      	orrs	r1, r4
 8003bec:	4301      	orrs	r1, r0
  WRITE_REG(huart->Instance->CR1, (uint32_t)tmpreg);
 8003bee:	60d1      	str	r1, [r2, #12]
  tmpreg = huart->Instance->CR3;
 8003bf0:	6951      	ldr	r1, [r2, #20]
  tmpreg |= huart->Init.HwFlowCtl;
 8003bf2:	6998      	ldr	r0, [r3, #24]
  tmpreg &= (uint32_t)~((uint32_t)(USART_CR3_RTSE | USART_CR3_CTSE));
 8003bf4:	f421 7140 	bic.w	r1, r1, #768	; 0x300
  tmpreg |= huart->Init.HwFlowCtl;
 8003bf8:	4301      	orrs	r1, r0
  if(huart->Init.OverSampling == UART_OVERSAMPLING_8)
 8003bfa:	f5b4 4f00 	cmp.w	r4, #32768	; 0x8000
  WRITE_REG(huart->Instance->CR3, (uint32_t)tmpreg);
 8003bfe:	6151      	str	r1, [r2, #20]
  if(huart->Init.OverSampling == UART_OVERSAMPLING_8)
 8003c00:	d02e      	beq.n	8003c60 <HAL_UART_Init+0xbc>
      huart->Instance->BRR = UART_BRR_SAMPLING16(HAL_RCC_GetPCLK2Freq(), huart->Init.BaudRate);
 8003c02:	6858      	ldr	r0, [r3, #4]
 8003c04:	4c24      	ldr	r4, [pc, #144]	; (8003c98 <HAL_UART_Init+0xf4>)
      huart->Instance->BRR = UART_BRR_SAMPLING16(HAL_RCC_GetPCLK1Freq(), huart->Init.BaudRate);
 8003c06:	4925      	ldr	r1, [pc, #148]	; (8003c9c <HAL_UART_Init+0xf8>)
 8003c08:	0080      	lsls	r0, r0, #2
 8003c0a:	fbb1 f1f0 	udiv	r1, r1, r0
 8003c0e:	fba4 5001 	umull	r5, r0, r4, r1
 8003c12:	0940      	lsrs	r0, r0, #5
 8003c14:	f04f 0c64 	mov.w	ip, #100	; 0x64
 8003c18:	fb0c 1110 	mls	r1, ip, r0, r1
 8003c1c:	0109      	lsls	r1, r1, #4
 8003c1e:	3132      	adds	r1, #50	; 0x32
 8003c20:	fba4 4101 	umull	r4, r1, r4, r1
 8003c24:	0100      	lsls	r0, r0, #4
 8003c26:	eb00 1151 	add.w	r1, r0, r1, lsr #5
 8003c2a:	6091      	str	r1, [r2, #8]
  UART_SetConfig(huart);

  /* In asynchronous mode, the following bits must be kept cleared:
     - LINEN and CLKEN bits in the USART_CR2 register,
     - SCEN, HDSEL and IREN  bits in the USART_CR3 register.*/
  CLEAR_BIT(huart->Instance->CR2, (USART_CR2_LINEN | USART_CR2_CLKEN));
 8003c2c:	6911      	ldr	r1, [r2, #16]
 8003c2e:	f421 4190 	bic.w	r1, r1, #18432	; 0x4800
 8003c32:	6111      	str	r1, [r2, #16]
  CLEAR_BIT(huart->Instance->CR3, (USART_CR3_SCEN | USART_CR3_HDSEL | USART_CR3_IREN));
 8003c34:	6951      	ldr	r1, [r2, #20]
 8003c36:	f021 012a 	bic.w	r1, r1, #42	; 0x2a
 8003c3a:	6151      	str	r1, [r2, #20]

  /* Enable the peripheral */
  __HAL_UART_ENABLE(huart);
 8003c3c:	68d1      	ldr	r1, [r2, #12]

  /* Initialize the UART state */
  huart->ErrorCode = HAL_UART_ERROR_NONE;
 8003c3e:	2400      	movs	r4, #0
  huart->gState= HAL_UART_STATE_READY;
 8003c40:	f04f 0c20 	mov.w	ip, #32
  __HAL_UART_ENABLE(huart);
 8003c44:	f441 5100 	orr.w	r1, r1, #8192	; 0x2000
 8003c48:	60d1      	str	r1, [r2, #12]
  huart->ErrorCode = HAL_UART_ERROR_NONE;
 8003c4a:	63dc      	str	r4, [r3, #60]	; 0x3c
  huart->gState= HAL_UART_STATE_READY;
 8003c4c:	f883 c039 	strb.w	ip, [r3, #57]	; 0x39
  huart->RxState= HAL_UART_STATE_READY;
 8003c50:	f883 c03a 	strb.w	ip, [r3, #58]	; 0x3a

  return HAL_OK;
 8003c54:	4620      	mov	r0, r4
}
 8003c56:	bc30      	pop	{r4, r5}
 8003c58:	4770      	bx	lr
    huart->Lock = HAL_UNLOCKED;
 8003c5a:	f880 1038 	strb.w	r1, [r0, #56]	; 0x38
 8003c5e:	e7ab      	b.n	8003bb8 <HAL_UART_Init+0x14>
      huart->Instance->BRR = UART_BRR_SAMPLING8(HAL_RCC_GetPCLK2Freq(), huart->Init.BaudRate);
 8003c60:	685c      	ldr	r4, [r3, #4]
 8003c62:	4d0d      	ldr	r5, [pc, #52]	; (8003c98 <HAL_UART_Init+0xf4>)
 8003c64:	480d      	ldr	r0, [pc, #52]	; (8003c9c <HAL_UART_Init+0xf8>)
 8003c66:	0064      	lsls	r4, r4, #1
 8003c68:	fbb0 f0f4 	udiv	r0, r0, r4
      huart->Instance->BRR = UART_BRR_SAMPLING8(HAL_RCC_GetPCLK1Freq(), huart->Init.BaudRate);
 8003c6c:	fba5 1400 	umull	r1, r4, r5, r0
 8003c70:	0964      	lsrs	r4, r4, #5
 8003c72:	2164      	movs	r1, #100	; 0x64
 8003c74:	fb01 0114 	mls	r1, r1, r4, r0
 8003c78:	00c9      	lsls	r1, r1, #3
 8003c7a:	3132      	adds	r1, #50	; 0x32
 8003c7c:	fba5 0101 	umull	r0, r1, r5, r1
 8003c80:	f3c1 1042 	ubfx	r0, r1, #5, #3
 8003c84:	0909      	lsrs	r1, r1, #4
 8003c86:	eb00 1004 	add.w	r0, r0, r4, lsl #4
 8003c8a:	f401 71f8 	and.w	r1, r1, #496	; 0x1f0
 8003c8e:	4401      	add	r1, r0
 8003c90:	6091      	str	r1, [r2, #8]
 8003c92:	e7cb      	b.n	8003c2c <HAL_UART_Init+0x88>
    return HAL_ERROR;
 8003c94:	2001      	movs	r0, #1
}
 8003c96:	4770      	bx	lr
 8003c98:	51eb851f 	.word	0x51eb851f
 8003c9c:	0afb6e90 	.word	0x0afb6e90

08003ca0 <HAL_UART_Transmit>:
{
  uint16_t* tmp;
  //uint32_t tickstart = 0U;

  /* Check that a Tx process is not already ongoing */
  if(huart->gState == HAL_UART_STATE_READY)
 8003ca0:	f890 3039 	ldrb.w	r3, [r0, #57]	; 0x39
 8003ca4:	2b20      	cmp	r3, #32
 8003ca6:	d142      	bne.n	8003d2e <HAL_UART_Transmit+0x8e>
  {
    if((pData == NULL ) || (Size == 0))
 8003ca8:	2900      	cmp	r1, #0
 8003caa:	d03e      	beq.n	8003d2a <HAL_UART_Transmit+0x8a>
 8003cac:	2a00      	cmp	r2, #0
 8003cae:	d03c      	beq.n	8003d2a <HAL_UART_Transmit+0x8a>
    {
      return  HAL_ERROR;
    }

    /* Process Locked */
    __HAL_LOCK(huart);
 8003cb0:	f890 3038 	ldrb.w	r3, [r0, #56]	; 0x38
 8003cb4:	2b01      	cmp	r3, #1
 8003cb6:	d03a      	beq.n	8003d2e <HAL_UART_Transmit+0x8e>
{
 8003cb8:	b410      	push	{r4}

    huart->ErrorCode = HAL_UART_ERROR_NONE;
    huart->gState = HAL_UART_STATE_BUSY_TX;
 8003cba:	2321      	movs	r3, #33	; 0x21
    huart->ErrorCode = HAL_UART_ERROR_NONE;
 8003cbc:	2400      	movs	r4, #0
 8003cbe:	63c4      	str	r4, [r0, #60]	; 0x3c
    huart->gState = HAL_UART_STATE_BUSY_TX;
 8003cc0:	f880 3039 	strb.w	r3, [r0, #57]	; 0x39

    /* Init tickstart for timeout managment */
    //tickstart = HAL_GetTick();

    huart->TxXferSize = Size;
    huart->TxXferCount = Size;
 8003cc4:	84c2      	strh	r2, [r0, #38]	; 0x26
    while(huart->TxXferCount > 0U)
 8003cc6:	8cc3      	ldrh	r3, [r0, #38]	; 0x26
    huart->TxXferSize = Size;
 8003cc8:	8482      	strh	r2, [r0, #36]	; 0x24
    __HAL_LOCK(huart);
 8003cca:	2401      	movs	r4, #1
    while(huart->TxXferCount > 0U)
 8003ccc:	b29b      	uxth	r3, r3
    __HAL_LOCK(huart);
 8003cce:	f880 4038 	strb.w	r4, [r0, #56]	; 0x38
    while(huart->TxXferCount > 0U)
 8003cd2:	2b00      	cmp	r3, #0
 8003cd4:	d02f      	beq.n	8003d36 <HAL_UART_Transmit+0x96>
    {
      huart->TxXferCount--;
      if(huart->Init.WordLength == UART_WORDLENGTH_9B)
 8003cd6:	6884      	ldr	r4, [r0, #8]
  while((__HAL_UART_GET_FLAG(huart, Flag) ? SET : RESET) == Status);
 8003cd8:	6802      	ldr	r2, [r0, #0]
      huart->TxXferCount--;
 8003cda:	8cc3      	ldrh	r3, [r0, #38]	; 0x26
 8003cdc:	3b01      	subs	r3, #1
 8003cde:	b29b      	uxth	r3, r3
      if(huart->Init.WordLength == UART_WORDLENGTH_9B)
 8003ce0:	f5b4 5f80 	cmp.w	r4, #4096	; 0x1000
      huart->TxXferCount--;
 8003ce4:	84c3      	strh	r3, [r0, #38]	; 0x26
      if(huart->Init.WordLength == UART_WORDLENGTH_9B)
 8003ce6:	d015      	beq.n	8003d14 <HAL_UART_Transmit+0x74>
  while((__HAL_UART_GET_FLAG(huart, Flag) ? SET : RESET) == Status);
 8003ce8:	6813      	ldr	r3, [r2, #0]
 8003cea:	061b      	lsls	r3, r3, #24
 8003cec:	d5fc      	bpl.n	8003ce8 <HAL_UART_Transmit+0x48>
      {
        if(UART_WaitOnFlagForever(huart, UART_FLAG_TXE, RESET) != HAL_OK)
        {
          return HAL_TIMEOUT;
        }
        huart->Instance->DR = (*pData++ & (uint8_t)0xFF);
 8003cee:	f811 3b01 	ldrb.w	r3, [r1], #1
 8003cf2:	6053      	str	r3, [r2, #4]
    while(huart->TxXferCount > 0U)
 8003cf4:	8cc3      	ldrh	r3, [r0, #38]	; 0x26
 8003cf6:	b29b      	uxth	r3, r3
 8003cf8:	2b00      	cmp	r3, #0
 8003cfa:	d1ee      	bne.n	8003cda <HAL_UART_Transmit+0x3a>
  while((__HAL_UART_GET_FLAG(huart, Flag) ? SET : RESET) == Status);
 8003cfc:	6813      	ldr	r3, [r2, #0]
 8003cfe:	065b      	lsls	r3, r3, #25
 8003d00:	d5fc      	bpl.n	8003cfc <HAL_UART_Transmit+0x5c>

    /* At end of Tx process, restore huart->gState to Ready */
      huart->gState = HAL_UART_STATE_READY;

    /* Process Unlocked */
    __HAL_UNLOCK(huart);
 8003d02:	2300      	movs	r3, #0
      huart->gState = HAL_UART_STATE_READY;
 8003d04:	2220      	movs	r2, #32
 8003d06:	f880 2039 	strb.w	r2, [r0, #57]	; 0x39
    __HAL_UNLOCK(huart);
 8003d0a:	f880 3038 	strb.w	r3, [r0, #56]	; 0x38
  }
  else
  {
    return HAL_BUSY;
  }
}
 8003d0e:	bc10      	pop	{r4}
    return HAL_OK;
 8003d10:	4618      	mov	r0, r3
}
 8003d12:	4770      	bx	lr
  while((__HAL_UART_GET_FLAG(huart, Flag) ? SET : RESET) == Status);
 8003d14:	6813      	ldr	r3, [r2, #0]
 8003d16:	061b      	lsls	r3, r3, #24
 8003d18:	d5fc      	bpl.n	8003d14 <HAL_UART_Transmit+0x74>
        huart->Instance->DR = (*tmp & (uint16_t)0x01FF);
 8003d1a:	880b      	ldrh	r3, [r1, #0]
 8003d1c:	f3c3 0308 	ubfx	r3, r3, #0, #9
 8003d20:	6053      	str	r3, [r2, #4]
        if(huart->Init.Parity == UART_PARITY_NONE)
 8003d22:	6903      	ldr	r3, [r0, #16]
 8003d24:	b92b      	cbnz	r3, 8003d32 <HAL_UART_Transmit+0x92>
          pData +=2U;
 8003d26:	3102      	adds	r1, #2
 8003d28:	e7e4      	b.n	8003cf4 <HAL_UART_Transmit+0x54>
      return  HAL_ERROR;
 8003d2a:	2001      	movs	r0, #1
 8003d2c:	4770      	bx	lr
    return HAL_BUSY;
 8003d2e:	2002      	movs	r0, #2
}
 8003d30:	4770      	bx	lr
          pData +=1U;
 8003d32:	3101      	adds	r1, #1
 8003d34:	e7de      	b.n	8003cf4 <HAL_UART_Transmit+0x54>
  while((__HAL_UART_GET_FLAG(huart, Flag) ? SET : RESET) == Status);
 8003d36:	6802      	ldr	r2, [r0, #0]
 8003d38:	e7e0      	b.n	8003cfc <HAL_UART_Transmit+0x5c>
 8003d3a:	bf00      	nop

08003d3c <HAL_UART_Receive>:
{
  uint16_t* tmp;
  //uint32_t tickstart = 0U;

  /* Check that a Rx process is not already ongoing */
  if(huart->RxState == HAL_UART_STATE_READY)
 8003d3c:	f890 303a 	ldrb.w	r3, [r0, #58]	; 0x3a
 8003d40:	2b20      	cmp	r3, #32
 8003d42:	d15c      	bne.n	8003dfe <HAL_UART_Receive+0xc2>
  {
    if((pData == NULL ) || (Size == 0))
 8003d44:	2900      	cmp	r1, #0
 8003d46:	d052      	beq.n	8003dee <HAL_UART_Receive+0xb2>
 8003d48:	2a00      	cmp	r2, #0
 8003d4a:	d050      	beq.n	8003dee <HAL_UART_Receive+0xb2>
    {
      return  HAL_ERROR;
    }

    /* Process Locked */
    __HAL_LOCK(huart);
 8003d4c:	f890 3038 	ldrb.w	r3, [r0, #56]	; 0x38
 8003d50:	2b01      	cmp	r3, #1
 8003d52:	d054      	beq.n	8003dfe <HAL_UART_Receive+0xc2>
{
 8003d54:	b410      	push	{r4}

    huart->ErrorCode = HAL_UART_ERROR_NONE;
    huart->RxState = HAL_UART_STATE_BUSY_RX;
 8003d56:	2322      	movs	r3, #34	; 0x22
    huart->ErrorCode = HAL_UART_ERROR_NONE;
 8003d58:	2400      	movs	r4, #0
 8003d5a:	63c4      	str	r4, [r0, #60]	; 0x3c
    huart->RxState = HAL_UART_STATE_BUSY_RX;
 8003d5c:	f880 303a 	strb.w	r3, [r0, #58]	; 0x3a

    /* Init tickstart for timeout managment */
    //tickstart = HAL_GetTick();

    huart->RxXferSize = Size;
    huart->RxXferCount = Size;
 8003d60:	85c2      	strh	r2, [r0, #46]	; 0x2e

    /* Check the remain data to be received */
    while(huart->RxXferCount > 0U)
 8003d62:	8dc3      	ldrh	r3, [r0, #46]	; 0x2e
    huart->RxXferSize = Size;
 8003d64:	8582      	strh	r2, [r0, #44]	; 0x2c
    __HAL_LOCK(huart);
 8003d66:	2401      	movs	r4, #1
    while(huart->RxXferCount > 0U)
 8003d68:	b29b      	uxth	r3, r3
    __HAL_LOCK(huart);
 8003d6a:	f880 4038 	strb.w	r4, [r0, #56]	; 0x38
    while(huart->RxXferCount > 0U)
 8003d6e:	b1ab      	cbz	r3, 8003d9c <HAL_UART_Receive+0x60>
    {
      huart->RxXferCount--;
 8003d70:	8dc3      	ldrh	r3, [r0, #46]	; 0x2e
      if(huart->Init.WordLength == UART_WORDLENGTH_9B)
 8003d72:	6882      	ldr	r2, [r0, #8]
      huart->RxXferCount--;
 8003d74:	3b01      	subs	r3, #1
 8003d76:	b29b      	uxth	r3, r3
      if(huart->Init.WordLength == UART_WORDLENGTH_9B)
 8003d78:	f5b2 5f80 	cmp.w	r2, #4096	; 0x1000
      huart->RxXferCount--;
 8003d7c:	85c3      	strh	r3, [r0, #46]	; 0x2e
  while((__HAL_UART_GET_FLAG(huart, Flag) ? SET : RESET) == Status);
 8003d7e:	6802      	ldr	r2, [r0, #0]
      if(huart->Init.WordLength == UART_WORDLENGTH_9B)
 8003d80:	d015      	beq.n	8003dae <HAL_UART_Receive+0x72>
  while((__HAL_UART_GET_FLAG(huart, Flag) ? SET : RESET) == Status);
 8003d82:	6813      	ldr	r3, [r2, #0]
 8003d84:	069c      	lsls	r4, r3, #26
 8003d86:	d5fc      	bpl.n	8003d82 <HAL_UART_Receive+0x46>
      {
        if(UART_WaitOnFlagForever(huart, UART_FLAG_RXNE, RESET) != HAL_OK)
        {
          return HAL_TIMEOUT;
        }
        if(huart->Init.Parity == UART_PARITY_NONE)
 8003d88:	6903      	ldr	r3, [r0, #16]
 8003d8a:	2b00      	cmp	r3, #0
 8003d8c:	d131      	bne.n	8003df2 <HAL_UART_Receive+0xb6>
        {
          *pData++ = (uint8_t)(huart->Instance->DR & (uint8_t)0x00FF);
 8003d8e:	6853      	ldr	r3, [r2, #4]
 8003d90:	f801 3b01 	strb.w	r3, [r1], #1
    while(huart->RxXferCount > 0U)
 8003d94:	8dc3      	ldrh	r3, [r0, #46]	; 0x2e
 8003d96:	b29b      	uxth	r3, r3
 8003d98:	2b00      	cmp	r3, #0
 8003d9a:	d1e9      	bne.n	8003d70 <HAL_UART_Receive+0x34>

    /* At end of Rx process, restore huart->RxState to Ready */
    huart->RxState = HAL_UART_STATE_READY;

    /* Process Unlocked */
    __HAL_UNLOCK(huart);
 8003d9c:	2300      	movs	r3, #0
    huart->RxState = HAL_UART_STATE_READY;
 8003d9e:	2220      	movs	r2, #32
 8003da0:	f880 203a 	strb.w	r2, [r0, #58]	; 0x3a
    __HAL_UNLOCK(huart);
 8003da4:	f880 3038 	strb.w	r3, [r0, #56]	; 0x38
  }
  else
  {
    return HAL_BUSY;
  }
}
 8003da8:	bc10      	pop	{r4}
    return HAL_OK;
 8003daa:	4618      	mov	r0, r3
}
 8003dac:	4770      	bx	lr
  while((__HAL_UART_GET_FLAG(huart, Flag) ? SET : RESET) == Status);
 8003dae:	6813      	ldr	r3, [r2, #0]
 8003db0:	069b      	lsls	r3, r3, #26
 8003db2:	d5fc      	bpl.n	8003dae <HAL_UART_Receive+0x72>
        if(huart->Init.Parity == UART_PARITY_NONE)
 8003db4:	6904      	ldr	r4, [r0, #16]
          *tmp = (uint16_t)(huart->Instance->DR & (uint16_t)0x01FF);
 8003db6:	6853      	ldr	r3, [r2, #4]
        if(huart->Init.Parity == UART_PARITY_NONE)
 8003db8:	bb1c      	cbnz	r4, 8003e02 <HAL_UART_Receive+0xc6>
          *tmp = (uint16_t)(huart->Instance->DR & (uint16_t)0x01FF);
 8003dba:	f3c3 0308 	ubfx	r3, r3, #0, #9
 8003dbe:	f821 3b02 	strh.w	r3, [r1], #2
    while(huart->RxXferCount > 0U)
 8003dc2:	8dc3      	ldrh	r3, [r0, #46]	; 0x2e
 8003dc4:	b29b      	uxth	r3, r3
 8003dc6:	2b00      	cmp	r3, #0
 8003dc8:	d0e8      	beq.n	8003d9c <HAL_UART_Receive+0x60>
      huart->RxXferCount--;
 8003dca:	8dc3      	ldrh	r3, [r0, #46]	; 0x2e
 8003dcc:	3b01      	subs	r3, #1
 8003dce:	b29b      	uxth	r3, r3
 8003dd0:	85c3      	strh	r3, [r0, #46]	; 0x2e
  while((__HAL_UART_GET_FLAG(huart, Flag) ? SET : RESET) == Status);
 8003dd2:	6813      	ldr	r3, [r2, #0]
 8003dd4:	069b      	lsls	r3, r3, #26
 8003dd6:	d5fc      	bpl.n	8003dd2 <HAL_UART_Receive+0x96>
          *tmp = (uint16_t)(huart->Instance->DR & (uint16_t)0x01FF);
 8003dd8:	6853      	ldr	r3, [r2, #4]
        if(huart->Init.Parity == UART_PARITY_NONE)
 8003dda:	b994      	cbnz	r4, 8003e02 <HAL_UART_Receive+0xc6>
          *tmp = (uint16_t)(huart->Instance->DR & (uint16_t)0x01FF);
 8003ddc:	f3c3 0308 	ubfx	r3, r3, #0, #9
 8003de0:	f821 3b02 	strh.w	r3, [r1], #2
    while(huart->RxXferCount > 0U)
 8003de4:	8dc3      	ldrh	r3, [r0, #46]	; 0x2e
 8003de6:	b29b      	uxth	r3, r3
 8003de8:	2b00      	cmp	r3, #0
 8003dea:	d1ee      	bne.n	8003dca <HAL_UART_Receive+0x8e>
 8003dec:	e7d6      	b.n	8003d9c <HAL_UART_Receive+0x60>
      return  HAL_ERROR;
 8003dee:	2001      	movs	r0, #1
 8003df0:	4770      	bx	lr
          *pData++ = (uint8_t)(huart->Instance->DR & (uint8_t)0x007F);
 8003df2:	6853      	ldr	r3, [r2, #4]
 8003df4:	f003 037f 	and.w	r3, r3, #127	; 0x7f
 8003df8:	f801 3b01 	strb.w	r3, [r1], #1
 8003dfc:	e7ca      	b.n	8003d94 <HAL_UART_Receive+0x58>
    return HAL_BUSY;
 8003dfe:	2002      	movs	r0, #2
}
 8003e00:	4770      	bx	lr
          *tmp = (uint16_t)(huart->Instance->DR & (uint16_t)0x00FF);
 8003e02:	b2db      	uxtb	r3, r3
 8003e04:	f821 3b01 	strh.w	r3, [r1], #1
 8003e08:	e7db      	b.n	8003dc2 <HAL_UART_Receive+0x86>
 8003e0a:	bf00      	nop

08003e0c <_sbrk>:
{
	extern char end asm("end");
	static char *heap_end;
	char *prev_heap_end;

	if (heap_end == 0)
 8003e0c:	4a0b      	ldr	r2, [pc, #44]	; (8003e3c <_sbrk+0x30>)
{
 8003e0e:	b508      	push	{r3, lr}
 8003e10:	4603      	mov	r3, r0
	if (heap_end == 0)
 8003e12:	6810      	ldr	r0, [r2, #0]
 8003e14:	b128      	cbz	r0, 8003e22 <_sbrk+0x16>
		heap_end = &end;

	prev_heap_end = heap_end;
	if (heap_end + incr > stack_ptr)
 8003e16:	4403      	add	r3, r0
 8003e18:	4669      	mov	r1, sp
 8003e1a:	428b      	cmp	r3, r1
 8003e1c:	d807      	bhi.n	8003e2e <_sbrk+0x22>
	{
		errno = ENOMEM;
		return (char *) -1;
	}

	heap_end += incr;
 8003e1e:	6013      	str	r3, [r2, #0]

	return (char *) prev_heap_end;
}
 8003e20:	bd08      	pop	{r3, pc}
		heap_end = &end;
 8003e22:	4807      	ldr	r0, [pc, #28]	; (8003e40 <_sbrk+0x34>)
 8003e24:	6010      	str	r0, [r2, #0]
	if (heap_end + incr > stack_ptr)
 8003e26:	4403      	add	r3, r0
 8003e28:	4669      	mov	r1, sp
 8003e2a:	428b      	cmp	r3, r1
 8003e2c:	d9f7      	bls.n	8003e1e <_sbrk+0x12>
		errno = ENOMEM;
 8003e2e:	f7fc f9f5 	bl	800021c <__errno>
 8003e32:	230c      	movs	r3, #12
 8003e34:	6003      	str	r3, [r0, #0]
		return (char *) -1;
 8003e36:	f04f 30ff 	mov.w	r0, #4294967295	; 0xffffffff
}
 8003e3a:	bd08      	pop	{r3, pc}
 8003e3c:	200009c0 	.word	0x200009c0
 8003e40:	20000a00 	.word	0x20000a00

08003e44 <HAL_RNG_MspInit>:
  /* Prevent unused argument(s) compilation warning */
  UNUSED(hrng);
  /* NOTE : This function should not be modified. When the callback is needed,
            function HAL_RNG_MspInit must be implemented in the user file.
   */
}
 8003e44:	4770      	bx	lr
 8003e46:	bf00      	nop

08003e48 <HAL_RNG_Init>:
  if(hrng == NULL)
 8003e48:	b1c0      	cbz	r0, 8003e7c <HAL_RNG_Init+0x34>
{ 
 8003e4a:	b510      	push	{r4, lr}
  __HAL_LOCK(hrng);
 8003e4c:	7903      	ldrb	r3, [r0, #4]
 8003e4e:	2b01      	cmp	r3, #1
 8003e50:	4604      	mov	r4, r0
 8003e52:	d015      	beq.n	8003e80 <HAL_RNG_Init+0x38>
  if(hrng->State == HAL_RNG_STATE_RESET)
 8003e54:	7943      	ldrb	r3, [r0, #5]
 8003e56:	f003 02ff 	and.w	r2, r3, #255	; 0xff
 8003e5a:	b15b      	cbz	r3, 8003e74 <HAL_RNG_Init+0x2c>
  __HAL_RNG_ENABLE(hrng);
 8003e5c:	6822      	ldr	r2, [r4, #0]
  hrng->State = HAL_RNG_STATE_BUSY;
 8003e5e:	2302      	movs	r3, #2
 8003e60:	7163      	strb	r3, [r4, #5]
  __HAL_RNG_ENABLE(hrng);
 8003e62:	6813      	ldr	r3, [r2, #0]
  __HAL_UNLOCK(hrng);
 8003e64:	2000      	movs	r0, #0
  __HAL_RNG_ENABLE(hrng);
 8003e66:	f043 0304 	orr.w	r3, r3, #4
  hrng->State = HAL_RNG_STATE_READY;
 8003e6a:	2101      	movs	r1, #1
  __HAL_RNG_ENABLE(hrng);
 8003e6c:	6013      	str	r3, [r2, #0]
  hrng->State = HAL_RNG_STATE_READY;
 8003e6e:	7161      	strb	r1, [r4, #5]
  __HAL_UNLOCK(hrng);
 8003e70:	7120      	strb	r0, [r4, #4]
}
 8003e72:	bd10      	pop	{r4, pc}
    hrng->Lock = HAL_UNLOCKED;
 8003e74:	7102      	strb	r2, [r0, #4]
    HAL_RNG_MspInit(hrng);
 8003e76:	f7ff ffe5 	bl	8003e44 <HAL_RNG_MspInit>
 8003e7a:	e7ef      	b.n	8003e5c <HAL_RNG_Init+0x14>
    return HAL_ERROR;
 8003e7c:	2001      	movs	r0, #1
}
 8003e7e:	4770      	bx	lr
  __HAL_LOCK(hrng);
 8003e80:	2002      	movs	r0, #2
}
 8003e82:	bd10      	pop	{r4, pc}

08003e84 <Reset_Handler>:
 8003e84:	2100      	movs	r1, #0
 8003e86:	e003      	b.n	8003e90 <LoopCopyDataInit>

08003e88 <CopyDataInit>:
 8003e88:	4b0b      	ldr	r3, [pc, #44]	; (8003eb8 <LoopForever+0x2>)
 8003e8a:	585b      	ldr	r3, [r3, r1]
 8003e8c:	5043      	str	r3, [r0, r1]
 8003e8e:	3104      	adds	r1, #4

08003e90 <LoopCopyDataInit>:
 8003e90:	480a      	ldr	r0, [pc, #40]	; (8003ebc <LoopForever+0x6>)
 8003e92:	4b0b      	ldr	r3, [pc, #44]	; (8003ec0 <LoopForever+0xa>)
 8003e94:	1842      	adds	r2, r0, r1
 8003e96:	429a      	cmp	r2, r3
 8003e98:	d3f6      	bcc.n	8003e88 <CopyDataInit>
 8003e9a:	4a0a      	ldr	r2, [pc, #40]	; (8003ec4 <LoopForever+0xe>)
 8003e9c:	e002      	b.n	8003ea4 <LoopFillZerobss>

08003e9e <FillZerobss>:
 8003e9e:	2300      	movs	r3, #0
 8003ea0:	6013      	str	r3, [r2, #0]
 8003ea2:	3204      	adds	r2, #4

08003ea4 <LoopFillZerobss>:
 8003ea4:	4b08      	ldr	r3, [pc, #32]	; (8003ec8 <LoopForever+0x12>)
 8003ea6:	429a      	cmp	r2, r3
 8003ea8:	d3f9      	bcc.n	8003e9e <FillZerobss>
 8003eaa:	f3af 8000 	nop.w
 8003eae:	f7fc f9e1 	bl	8000274 <__libc_init_array>
 8003eb2:	f7fd fb2f 	bl	8001514 <main>

08003eb6 <LoopForever>:
 8003eb6:	e7fe      	b.n	8003eb6 <LoopForever>
 8003eb8:	080043d0 	.word	0x080043d0
 8003ebc:	20000000 	.word	0x20000000
 8003ec0:	20000840 	.word	0x20000840
 8003ec4:	20000840 	.word	0x20000840
 8003ec8:	200009fc 	.word	0x200009fc

08003ecc <BusFault_Handler>:
 8003ecc:	e7fe      	b.n	8003ecc <BusFault_Handler>
 8003ece:	0000      	movs	r0, r0

08003ed0 <register_fini>:
 8003ed0:	4b02      	ldr	r3, [pc, #8]	; (8003edc <register_fini+0xc>)
 8003ed2:	b113      	cbz	r3, 8003eda <register_fini+0xa>
 8003ed4:	4802      	ldr	r0, [pc, #8]	; (8003ee0 <register_fini+0x10>)
 8003ed6:	f7fc b99b 	b.w	8000210 <atexit>
 8003eda:	4770      	bx	lr
 8003edc:	00000000 	.word	0x00000000
 8003ee0:	08000249 	.word	0x08000249

08003ee4 <_init>:
 8003ee4:	b5f8      	push	{r3, r4, r5, r6, r7, lr}
 8003ee6:	bf00      	nop
 8003ee8:	bcf8      	pop	{r3, r4, r5, r6, r7}
 8003eea:	bc08      	pop	{r3}
 8003eec:	469e      	mov	lr, r3
 8003eee:	4770      	bx	lr

08003ef0 <_fini>:
 8003ef0:	b5f8      	push	{r3, r4, r5, r6, r7, lr}
 8003ef2:	bf00      	nop
 8003ef4:	bcf8      	pop	{r3, r4, r5, r6, r7}
 8003ef6:	bc08      	pop	{r3}
 8003ef8:	469e      	mov	lr, r3
 8003efa:	4770      	bx	lr
